(dp1
S'Taniai17cvpr'
p2
(lp3
(S'flow'
I164
tp4
a(S'motion'
I60
tp5
a(S'scene'
I59
tp6
a(S'disparity'
I58
tp7
a(S'map'
I56
tp8
a(S'stereo'
I52
tp9
a(S'segmentation'
I45
tp10
a(S'image'
I43
tp11
a(S'method'
I37
tp12
a(S'camera'
I35
tp13
a(S'rigid'
I34
tp14
a(S'optical'
I33
tp15
a(S'vision'
I33
tp16
a(S'computer'
I33
tp17
a(S'osf'
I27
tp18
a(S'pixels'
I27
tp19
a(S'sgm'
I26
tp20
a(S'term'
I26
tp21
a(S'moving'
I26
tp22
a(S'matching'
I26
tp23
a(S'ncc'
I24
tp24
a(S'estimate'
I23
tp25
a(S'prsm'
I23
tp26
a(S'ieee'
I23
tp27
a(S'pattern'
I23
tp28
a(S'final'
I21
tp29
a(S'col'
I20
tp30
a(S'non-rigid'
I19
tp31
a(S'visual'
I19
tp32
a(S'estimation'
I19
tp33
a(S'flo'
I18
tp34
a(S'ground'
I18
tp35
a(S'computed'
I18
tp36
a(S'methods'
I18
tp37
a(S'estimated'
I17
tp38
a(S'proposed'
I17
tp39
a(S'compute'
I17
tp40
a(S'kitti'
I16
tp41
a(S'prior'
I16
tp42
a(S'initial'
I16
tp43
a(S'fnon'
I15
tp44
a(S'proposal'
I15
tp45
a(S'objects'
I14
tp46
a(S'epipolar'
I14
tp47
a(S'maps'
I14
tp48
a(S'figure'
I13
tp49
a(S'frig'
I13
tp50
a(S'frame'
I13
tp51
a(S'range'
I13
tp52
a(S'mask'
I13
tp53
a(S'color'
I12
tp54
a(S'optimization'
I12
tp55
a(S'odometry'
I12
tp56
a(S'foreground'
I11
tp57
a(S'costs'
I11
tp58
a(S'consistency'
I11
tp59
a(S'sintel'
I11
tp60
a(S'fusion'
I11
tp61
a(S'images'
I11
tp62
a(S'edge'
I10
tp63
a(S'pixel'
I10
tp64
a(S'weighted'
I10
tp65
a(S'weight'
I10
tp66
a(S'object'
I10
tp67
a(S'based'
I10
tp68
a(S'parameters'
I10
tp69
a(S'recognition'
I10
tp70
a(S'defined'
I10
tp71
a(S'graph'
I9
tp72
a(S'dmax'
I9
tp73
a(S'regions'
I9
tp74
a(S'var'
I9
tp75
a(S'median'
I9
tp76
a(S'sequences'
I9
tp77
a(S'error'
I9
tp78
a(S'residuals'
I9
tp79
a(S'background'
I9
tp80
a(S'frames'
I9
tp81
a(S'binocular'
I9
tp82
a(S'algorithm'
I9
tp83
a(S'current'
I8
tp84
a(S'points'
I8
tp85
a(S'threshold'
I8
tp86
a(S'target'
I8
tp87
a(S'uncertainty'
I8
tp88
a(S'filtering'
I8
tp89
a(S'model'
I8
tp90
a(S'accurate'
I8
tp91
a(S'previous'
I8
tp92
a(S'dense'
I8
tp93
a(S'volume'
I8
tp94
a(S'faster'
I8
tp95
a(S'depth'
I8
tp96
a(S'min'
I7
tp97
a(S'cost'
I7
tp98
a(S'data'
I7
tp99
a(S'cameras'
I7
tp100
a(S'fast'
I7
tp101
a(S'variational'
I7
tp102
a(S'relative'
I7
tp103
asS'Behl17iccv'
p104
(lp105
(S'flow'
I85
tp106
a(S'scene'
I84
tp107
a(S'object'
I68
tp108
a(S'recognition'
I52
tp109
a(S'instance'
I46
tp110
a(S'vision'
I42
tp111
a(S'computer'
I39
tp112
a(S'estimation'
I29
tp113
a(S'coordinates'
I27
tp114
a(S'bounding'
I23
tp115
a(S'kitti'
I23
tp116
a(S'ieee'
I21
tp117
a(S'motion'
I20
tp118
a(S'method'
I19
tp119
a(S'model'
I19
tp120
a(S'stereo'
I17
tp121
a(S'pattern'
I17
tp122
a(S'semantic'
I16
tp123
a(S'rigid'
I16
tp124
a(S'2015'
I16
tp125
a(S'methods'
I16
tp126
a(S'segmentation'
I15
tp127
a(S'term'
I15
tp128
a(S'european'
I14
tp129
a(S'based'
I14
tp130
a(S'coordinate'
I14
tp131
a(S'input'
I13
tp132
a(S'challenging'
I12
tp133
a(S'pixel'
I12
tp134
a(S'instances'
I12
tp135
a(S'state-of-the-art'
I12
tp136
a(S'local'
I12
tp137
a(S'set'
I12
tp138
a(S'reference'
I12
tp139
a(S'appearance'
I12
tp140
a(S'disparity'
I12
tp141
a(S'sparse'
I12
tp142
a(S'images'
I12
tp143
a(S'dense'
I12
tp144
a(S'cnn'
I12
tp145
a(S'large'
I11
tp146
a(S'box'
I11
tp147
a(S'predictions'
I11
tp148
a(S'segmentations'
I11
tp149
a(S'network'
I11
tp150
a(S'geometric'
I11
tp151
a(S'pixels'
I11
tp152
a(S'optimization'
I11
tp153
a(S'image'
I11
tp154
a(S'international'
I11
tp155
a(S'superpixel'
I11
tp156
a(S'cues'
I10
tp157
a(S'geometry'
I10
tp158
a(S'optical'
I10
tp159
a(S'target'
I10
tp160
a(S'performance'
I10
tp161
a(S'robust'
I10
tp162
a(S'view'
I10
tp163
a(S'body'
I9
tp164
a(S'benchmark'
I9
tp165
a(S'parameters'
I9
tp166
a(S'approach'
I9
tp167
a(S'boxes'
I9
tp168
a(S'estimates'
I8
tp169
a(S'figure'
I8
tp170
a(S'foreground'
I8
tp171
a(S'continuous'
I8
tp172
a(S'rgb'
I8
tp173
a(S'pose'
I8
tp174
a(S'additional'
I8
tp175
a(S'osf'
I7
tp176
a(S'objects'
I7
tp177
a(S'study'
I7
tp178
a(S'train'
I7
tp179
a(S'data'
I7
tp180
a(S'correspondences'
I7
tp181
a(S'error'
I7
tp182
a(S'well'
I7
tp183
a(S'background'
I7
tp184
a(S'problem'
I7
tp185
a(S'validation'
I7
tp186
a(S'fine-grained'
I6
tp187
a(S'leads'
I6
tp188
a(S'camera'
I6
tp189
a(S'convolutional'
I6
tp190
a(S'car'
I6
tp191
a(S'work'
I6
tp192
a(S'provide'
I6
tp193
a(S'ablation'
I6
tp194
a(S'quality'
I6
tp195
a(S'predicted'
I6
tp196
a(S'measures'
I6
tp197
a(S'joint'
I6
tp198
a(S'frame'
I6
tp199
a(S'task'
I6
tp200
a(S'location'
I6
tp201
a(S'table'
I6
tp202
a(S'refer'
I6
tp203
a(S'comparison'
I6
tp204
a(S'presence'
I6
tp205
asS'Ruttle09imvip'
p206
(lp207
(S'scene'
I86
tp208
a(S'flow'
I84
tp209
a(S'optical'
I47
tp210
a(S'point'
I36
tp211
a(S'points'
I30
tp212
a(S'background'
I22
tp213
a(S'camera'
I21
tp214
a(S'pixel'
I19
tp215
a(S'calculate'
I18
tp216
a(S'figure'
I18
tp217
a(S'method'
I17
tp218
a(S'flows'
I17
tp219
a(S'pixels'
I16
tp220
a(S'subtraction'
I15
tp221
a(S'time'
I14
tp222
a(S'thresholding'
I13
tp223
a(S'motion'
I13
tp224
a(S'cameras'
I12
tp225
a(S'surface'
I12
tp226
a(S'histogram'
I12
tp227
a(S'image'
I11
tp228
a(S'multiple'
I10
tp229
a(S'knowledge'
I10
tp230
a(S'previous'
I10
tp231
a(S'objects'
I9
tp232
a(S'determining'
I9
tp233
a(S'projection'
I8
tp234
a(S'rays'
I8
tp235
a(S'position'
I8
tp236
a(S'ray'
I8
tp237
a(S'human'
I8
tp238
a(S'methods'
I8
tp239
a(S'projected'
I7
tp240
a(S'single'
I7
tp241
a(S'good'
I6
tp242
a(S'object'
I6
tp243
a(S'computer'
I6
tp244
a(S'described'
I6
tp245
a(S'corresponding'
I6
tp246
a(S'prior'
I5
tp247
a(S'ieee'
I5
tp248
a(S'better'
I5
tp249
a(S'magnitude'
I5
tp250
a(S'number'
I5
tp251
a(S'vision'
I5
tp252
a(S'range'
I5
tp253
a(S'frames'
I5
tp254
a(S'thresholded'
I5
tp255
a(S'required'
I5
tp256
a(S'difference'
I4
tp257
a(S'eva'
I4
tp258
a(S'large'
I4
tp259
a(S'current'
I4
tp260
a(S'work'
I4
tp261
a(S'derived'
I4
tp262
a(S'matrix'
I4
tp263
a(S'space'
I4
tp264
a(S'generate'
I4
tp265
a(S'centre'
I4
tp266
a(S'calculated'
I4
tp267
a(S'proceedings'
I4
tp268
a(S'result'
I4
tp269
a(S'conference'
I4
tp270
a(S'three'
I4
tp271
a(S'error'
I4
tp272
a(S'capture'
I4
tp273
a(S'closest'
I4
tp274
a(S'scenario'
I4
tp275
a(S'vedula'
I4
tp276
a(S'dataset'
I4
tp277
a(S'determine'
I4
tp278
a(S'maximum'
I4
tp279
a(S'structure'
I4
tp280
a(S'vector'
I3
tp281
a(S'video'
I3
tp282
a(S'international'
I3
tp283
a(S'body'
I3
tp284
a(S'equation'
I3
tp285
a(S'machine'
I3
tp286
a(S'data'
I3
tp287
a(S'outline'
I3
tp288
a(S'views'
I3
tp289
a(S'geometry'
I3
tp290
a(S'size'
I3
tp291
a(S'black'
I3
tp292
a(S'areas'
I3
tp293
a(S'reveal'
I3
tp294
a(S'frame'
I3
tp295
a(S'estimation'
I3
tp296
a(S'allows'
I3
tp297
a(S'belong'
I3
tp298
a(S'moving'
I3
tp299
a(S'remaining'
I3
tp300
a(S'intersection'
I3
tp301
a(S'dimensions'
I3
tp302
a(S'seconds'
I3
tp303
a(S'head'
I3
tp304
a(S'general'
I3
tp305
a(S'calculating'
I3
tp306
a(S'2009'
I3
tp307
asS'Vogel14eccv'
p308
(lp309
(S'flow'
I82
tp310
a(S'scene'
I73
tp311
a(S'motion'
I64
tp312
a(S'time'
I42
tp313
a(S'moving'
I39
tp314
a(S'stereo'
I31
tp315
a(S'estimation'
I28
tp316
a(S'frames'
I28
tp317
a(S'segmentation'
I25
tp318
a(S'view'
I24
tp319
a(S'plane'
I23
tp320
a(S'views'
I22
tp321
a(S'pixel'
I21
tp322
a(S'consistency'
I21
tp323
a(S'pixels'
I19
tp324
a(S'depth'
I18
tp325
a(S'data'
I17
tp326
a(S'term'
I17
tp327
a(S'set'
I17
tp328
a(S'reference'
I17
tp329
a(S'images'
I17
tp330
a(S'camera'
I17
tp331
a(S'kitti'
I16
tp332
a(S'optical'
I16
tp333
a(S'multiple'
I16
tp334
a(S'consistent'
I15
tp335
a(S'method'
I14
tp336
a(S'view-consistent'
I14
tp337
a(S'constant'
I14
tp338
a(S'canonical'
I13
tp339
a(S'temporal'
I13
tp340
a(S'geometry'
I13
tp341
a(S'define'
I13
tp342
a(S'corresponding'
I13
tp343
a(S'model'
I13
tp344
a(S'cvpr'
I12
tp345
a(S'image'
I12
tp346
a(S'allows'
I11
tp347
a(S'estimate'
I11
tp348
a(S'segment'
I11
tp349
a(S'segments'
I10
tp350
a(S'relative'
I10
tp351
a(S'note'
I10
tp352
a(S'left'
I10
tp353
a(S'proposals'
I9
tp354
a(S'rigid'
I9
tp355
a(S'heidelberg'
I9
tp356
a(S'energy'
I9
tp357
a(S'penalty'
I9
tp358
a(S'consecutive'
I9
tp359
a(S'robust'
I9
tp360
a(S'eccv'
I8
tp361
a(S'evaluation'
I8
tp362
a(S'regularization'
I8
tp363
a(S'induced'
I8
tp364
a(S'number'
I8
tp365
a(S'scenes'
I8
tp366
a(S'velocity'
I8
tp367
a(S'case'
I8
tp368
a(S'error'
I8
tp369
a(S'schindler'
I8
tp370
a(S'dense'
I8
tp371
a(S'assuming'
I8
tp372
a(S'spatial'
I8
tp373
a(S'longer'
I8
tp374
a(S'grid'
I7
tp375
a(S'points'
I7
tp376
a(S'geometric'
I7
tp377
a(S'shape'
I7
tp378
a(S'multi-frame'
I7
tp379
a(S'form'
I7
tp380
a(S'field'
I7
tp381
a(S'small'
I6
tp382
a(S'video'
I6
tp383
a(S'work'
I6
tp384
a(S'imaging'
I6
tp385
a(S'normal'
I6
tp386
a(S'representation'
I6
tp387
a(S'distance'
I6
tp388
a(S'frame'
I6
tp389
a(S'extend'
I6
tp390
a(S'piecewise'
I6
tp391
a(S'planar'
I6
tp392
a(S'occluded'
I6
tp393
a(S'disparity'
I6
tp394
a(S'occlusion'
I6
tp395
a(S'methods'
I6
tp396
a(S'steps'
I6
tp397
a(S'initial'
I6
tp398
a(S'single'
I6
tp399
a(S'implausible'
I5
tp400
a(S'second'
I5
tp401
a(S'estimated'
I5
tp402
a(S'current'
I5
tp403
a(S'vectors'
I5
tp404
a(S'changes'
I5
tp405
a(S'oob'
I5
tp406
a(S'respective'
I5
tp407
a(S'including'
I5
tp408
a(S'estimating'
I5
tp409
asS'Zhang03tsmca'
p410
(lp411
(S'motion'
I135
tp412
a(S'image'
I93
tp413
a(S'stereo'
I92
tp414
a(S'flow'
I88
tp415
a(S'scene'
I74
tp416
a(S'3-d'
I68
tp417
a(S'structure'
I66
tp418
a(S'disparity'
I58
tp419
a(S'optical'
I53
tp420
a(S'constraints'
I51
tp421
a(S'point'
I42
tp422
a(S'algorithm'
I40
tp423
a(S'initial'
I39
tp424
a(S'ieee'
I36
tp425
a(S'matching'
I35
tp426
a(S'camera'
I35
tp427
a(S'computer'
I29
tp428
a(S'model'
I29
tp429
a(S'segment'
I25
tp430
a(S'local'
I25
tp431
a(S'depth'
I25
tp432
a(S'pattern'
I24
tp433
a(S'recovered'
I23
tp434
a(S'valid'
I22
tp435
a(S'nonrigid'
I21
tp436
a(S'frame'
I21
tp437
a(S'reference'
I19
tp438
a(S'confidence'
I18
tp439
a(S'constraint'
I18
tp440
a(S'segments'
I17
tp441
a(S'cameras'
I17
tp442
a(S'computed'
I17
tp443
a(S'egs'
I16
tp444
a(S'affine'
I16
tp445
a(S'compute'
I16
tp446
a(S'small'
I15
tp447
a(S'segmentation'
I15
tp448
a(S'map'
I15
tp449
a(S'ims'
I15
tp450
a(S'smoothness'
I15
tp451
a(S'set'
I15
tp452
a(S'rule'
I15
tp453
a(S'method'
I14
tp454
a(S'vision'
I14
tp455
a(S'multiview'
I13
tp456
a(S'energy'
I13
tp457
a(S'2-d'
I13
tp458
a(S'region'
I13
tp459
a(S'estimation'
I13
tp460
a(S'images'
I13
tp461
a(S'defined'
I13
tp462
a(S'formulation'
I13
tp463
a(S'assume'
I13
tp464
a(S'synthetic'
I12
tp465
a(S'occluded'
I12
tp466
a(S'measurement'
I12
tp467
a(S'dense'
I12
tp468
a(S'function'
I12
tp469
a(S'machine'
I12
tp470
a(S'zhang'
I11
tp471
a(S'represented'
I11
tp472
a(S'rule-based'
I11
tp473
a(S'points'
I11
tp474
a(S'sequences'
I11
tp475
a(S'real'
I11
tp476
a(S'three-dimensional'
I10
tp477
a(S'recovery'
I10
tp478
a(S'accurate'
I10
tp479
a(S'frames'
I10
tp480
a(S'order'
I9
tp481
a(S'systems'
I9
tp482
a(S'estimate'
I9
tp483
a(S'smooth'
I9
tp484
a(S'2003'
I9
tp485
a(S'large'
I8
tp486
a(S'maps'
I8
tp487
a(S'regions'
I8
tp488
a(S'correspondence'
I8
tp489
a(S'egs-f2'
I8
tp490
a(S'transactions'
I8
tp491
a(S'object'
I8
tp492
a(S'august'
I8
tp493
a(S'three'
I8
tp494
a(S'applied'
I8
tp495
a(S'reliable'
I8
tp496
a(S'well'
I8
tp497
a(S'solve'
I8
tp498
a(S'proposed'
I8
tp499
a(S'cybernetics--part'
I8
tp500
a(S'hard'
I8
tp501
a(S'presented'
I7
tp502
a(S'recursive'
I7
tp503
a(S'unknowns'
I7
tp504
a(S'regularization'
I7
tp505
a(S'designed'
I7
tp506
a(S'monocular'
I7
tp507
a(S'system'
I7
tp508
a(S'multiple'
I7
tp509
a(S'experiments'
I7
tp510
a(S'formulations'
I7
tp511
asS'thesis_hadfield'
p512
(lp513
(S'scene'
I411
tp514
a(S'motion'
I400
tp515
a(S'flow'
I293
tp516
a(S'estimation'
I200
tp517
a(S'depth'
I161
tp518
a(S'action'
I148
tp519
a(S'recognition'
I144
tp520
a(S'point'
I135
tp521
a(S'based'
I131
tp522
a(S'figure'
I129
tp523
a(S'particle'
I129
tp524
a(S'particles'
I128
tp525
a(S'features'
I126
tp526
a(S'performance'
I123
tp527
a(S'chapter'
I121
tp528
a(S'computer'
I114
tp529
a(S'points'
I110
tp530
a(S'interest'
I110
tp531
a(S'number'
I110
tp532
a(S'feature'
I105
tp533
a(S'image'
I102
tp534
a(S'structure'
I100
tp535
a(S'optical'
I95
tp536
a(S'error'
I94
tp537
a(S'appearance'
I93
tp538
a(S'set'
I82
tp539
a(S'function'
I76
tp540
a(S'vision'
I75
tp541
a(S'equation'
I74
tp542
a(S'approach'
I72
tp543
a(S'conference'
I71
tp544
a(S'pose'
I68
tp545
a(S'saliency'
I66
tp546
a(S'previous'
I65
tp547
a(S'descriptor'
I65
tp548
a(S'local'
I65
tp549
a(S'ieee'
I64
tp550
a(S'range'
I63
tp551
a(S'smoothing'
I62
tp552
a(S'constancy'
I60
tp553
a(S'encoding'
I58
tp554
a(S'likelihood'
I58
tp555
a(S'tracking'
I57
tp556
a(S'algorithm'
I57
tp557
a(S'dataset'
I57
tp558
a(S'single'
I56
tp559
a(S'response'
I56
tp560
a(S'scale'
I56
tp561
a(S'histogram'
I55
tp562
a(S'techniques'
I52
tp563
a(S'pixel'
I52
tp564
a(S'estimated'
I51
tp565
a(S'data'
I51
tp566
a(S'object'
I50
tp567
a(S'order'
I49
tp568
a(S'brightness'
I49
tp569
a(S'spatial'
I49
tp570
a(S'probability'
I49
tp571
a(S'frame'
I49
tp572
a(S'structural'
I48
tp573
a(S'detection'
I48
tp574
a(S'hand'
I48
tp575
a(S'sensor'
I48
tp576
a(S'field'
I48
tp577
a(S'example'
I47
tp578
a(S'stereo'
I47
tp579
a(S'pattern'
I47
tp580
a(S'average'
I46
tp581
a(S'standard'
I45
tp582
a(S'international'
I45
tp583
a(S'plane'
I45
tp584
a(S'accuracy'
I45
tp585
a(S'work'
I44
tp586
a(S'images'
I44
tp587
a(S'additional'
I44
tp588
a(S'assumption'
I43
tp589
a(S'improved'
I43
tp590
a(S'sequence'
I43
tp591
a(S'proc'
I42
tp592
a(S'provide'
I41
tp593
a(S'values'
I41
tp594
a(S'gaussian'
I41
tp595
a(S'velocity'
I41
tp596
a(S'multiple'
I40
tp597
a(S'table'
I40
tp598
a(S'evaluation'
I40
tp599
a(S'analysis'
I40
tp600
a(S'regions'
I40
tp601
a(S'system'
I40
tp602
a(S'motions'
I38
tp603
a(S'classification'
I37
tp604
a(S'hos'
I37
tp605
a(S'hollywood'
I37
tp606
a(S'leads'
I37
tp607
a(S'note'
I37
tp608
a(S'original'
I37
tp609
a(S'including'
I37
tp610
a(S'spatiotemporal'
I37
tp611
a(S'functions'
I37
tp612
a(S'dense'
I36
tp613
asS'Courchay10accv'
p614
(lp615
(S'animated'
I32
tp616
a(S'motion'
I30
tp617
a(S'spatio-temporal'
I27
tp618
a(S'mesh'
I27
tp619
a(S'time'
I26
tp620
a(S'computer'
I25
tp621
a(S'shape'
I23
tp622
a(S'image'
I23
tp623
a(S'multi-view'
I20
tp624
a(S'scene'
I19
tp625
a(S'ieee'
I16
tp626
a(S'conference'
I16
tp627
a(S'dense'
I16
tp628
a(S'vision'
I14
tp629
a(S'accurate'
I14
tp630
a(S'term'
I13
tp631
a(S'method'
I12
tp632
a(S'approach'
I12
tp633
a(S'representation'
I11
tp634
a(S'energy'
I11
tp635
a(S'pattern'
I11
tp636
a(S'dynamic'
I10
tp637
a(S'flow'
I10
tp638
a(S'surface'
I10
tp639
a(S'stereovision'
I10
tp640
a(S'positions'
I9
tp641
a(S'temporal'
I8
tp642
a(S'variational'
I8
tp643
a(S'stereo'
I8
tp644
a(S'velocity'
I8
tp645
a(S'reconstruction'
I8
tp646
a(S'estimation'
I8
tp647
a(S'optimization'
I8
tp648
a(S'video'
I7
tp649
a(S'computed'
I7
tp650
a(S'ome'
I7
tp651
a(S'graphics'
I7
tp652
a(S'capture'
I7
tp653
a(S'multi-resolution'
I7
tp654
a(S'frames'
I7
tp655
a(S'vertex'
I7
tp656
a(S'international'
I6
tp657
a(S'visible'
I6
tp658
a(S'gradient'
I6
tp659
a(S'time-varying'
I6
tp660
a(S'spatiotemporal'
I6
tp661
a(S'courchay'
I6
tp662
a(S'methods'
I6
tp663
a(S'function'
I6
tp664
a(S'triangular'
I6
tp665
a(S'volume'
I6
tp666
a(S'field'
I6
tp667
a(S'algorithm'
I6
tp668
a(S'partial'
I5
tp669
a(S'discrete'
I5
tp670
a(S'work'
I5
tp671
a(S'simultaneously'
I5
tp672
a(S'figure'
I5
tp673
a(S'pairs'
I5
tp674
a(S'meshes'
I5
tp675
a(S'accurately'
I5
tp676
a(S'reprojection'
I5
tp677
a(S'facet'
I5
tp678
a(S'point'
I5
tp679
a(S'image-based'
I5
tp680
a(S'delaunay'
I5
tp681
a(S'optimize'
I5
tp682
a(S'deformable'
I5
tp683
a(S'pixel'
I4
tp684
a(S'camera'
I4
tp685
a(S'challenging'
I4
tp686
a(S'regularization'
I4
tp687
a(S'attachment'
I4
tp688
a(S'data'
I4
tp689
a(S'measure'
I4
tp690
a(S'geometry'
I4
tp691
a(S'performance'
I4
tp692
a(S'polygonal'
I4
tp693
a(S'based'
I4
tp694
a(S'human'
I4
tp695
a(S'frame'
I4
tp696
a(S'geometric'
I4
tp697
a(S'topology'
I4
tp698
a(S'respect'
I4
tp699
a(S'define'
I4
tp700
a(S'applied'
I4
tp701
a(S'transactions'
I4
tp702
a(S'dierent'
I4
tp703
a(S'dissimilarity'
I4
tp704
a(S'constant'
I4
tp705
a(S'input'
I4
tp706
a(S'sparse'
I4
tp707
a(S'inter-frame'
I4
tp708
a(S'limited'
I3
tp709
a(S'desirable'
I3
tp710
a(S'consistent'
I3
tp711
a(S'estimated'
I3
tp712
a(S'full'
I3
tp713
a(S'composed'
I3
tp714
a(S'eectiveness'
I3
tp715
asS'Popham14cviu'
p716
(lp717
(S'motion'
I124
tp718
a(S'patch'
I83
tp719
a(S'scene'
I80
tp720
a(S'flow'
I70
tp721
a(S'surface'
I66
tp722
a(S'image'
I45
tp723
a(S'patches'
I43
tp724
a(S'vision'
I43
tp725
a(S'method'
I40
tp726
a(S'model'
I38
tp727
a(S'computer'
I36
tp728
a(S'texture'
I30
tp729
a(S'estimate'
I29
tp730
a(S'optical'
I27
tp731
a(S'local'
I26
tp732
a(S'mesh'
I25
tp733
a(S'estimation'
I24
tp734
a(S'estimating'
I23
tp735
a(S'conference'
I23
tp736
a(S'estimated'
I22
tp737
a(S'neighbouring'
I22
tp738
a(S'motions'
I20
tp739
a(S'cameras'
I20
tp740
a(S'global'
I19
tp741
a(S'measurement'
I18
tp742
a(S'frame'
I18
tp743
a(S'node'
I18
tp744
a(S'estimates'
I17
tp745
a(S'ieee'
I17
tp746
a(S'tracking'
I17
tp747
a(S'algorithm'
I17
tp748
a(S'prior'
I16
tp749
a(S'feature'
I16
tp750
a(S'belief'
I16
tp751
a(S'ground'
I16
tp752
a(S'point'
I16
tp753
a(S'covariance'
I16
tp754
a(S'truth'
I15
tp755
a(S'proposed'
I15
tp756
a(S'sequence'
I15
tp757
a(S'features'
I14
tp758
a(S'points'
I14
tp759
a(S'pattern'
I14
tp760
a(S'frames'
I14
tp761
a(S'katy'
I13
tp762
a(S'understanding'
I13
tp763
a(S'stereo'
I13
tp764
a(S'set'
I13
tp765
a(S'methods'
I13
tp766
a(S'field'
I13
tp767
a(S'error'
I12
tp768
a(S'popham'
I12
tp769
a(S'121'
I12
tp770
a(S'article'
I12
tp771
a(S'uncertainty'
I12
tp772
a(S'dense'
I12
tp773
a(S'camera'
I11
tp774
a(S'order'
I11
tp775
a(S'approaches'
I11
tp776
a(S'propagation'
I11
tp777
a(S'three'
I11
tp778
a(S'position'
I11
tp779
a(S'single'
I11
tp780
a(S'confidence'
I10
tp781
a(S'work'
I10
tp782
a(S'number'
I10
tp783
a(S'matrix'
I10
tp784
a(S'colour'
I10
tp785
a(S'based'
I10
tp786
a(S'note'
I10
tp787
a(S'vedula'
I10
tp788
a(S'smooth'
I10
tp789
a(S'smoothness'
I9
tp790
a(S'gaussian'
I9
tp791
a(S'representing'
I9
tp792
a(S'performance'
I9
tp793
a(S'left'
I9
tp794
a(S'approach'
I9
tp795
a(S'respect'
I9
tp796
a(S'interconnected'
I9
tp797
a(S'ellipsoids'
I9
tp798
a(S'tracked'
I9
tp799
a(S'problem'
I9
tp800
a(S'required'
I9
tp801
a(S'time'
I9
tp802
a(S'technique'
I8
tp803
a(S'presented'
I8
tp804
a(S'international'
I8
tp805
a(S'figure'
I8
tp806
a(S'noise'
I8
tp807
a(S'algorithms'
I8
tp808
a(S'energy'
I8
tp809
a(S'multi-view'
I8
tp810
a(S'parameters'
I8
tp811
a(S'techniques'
I8
tp812
a(S'c2c'
I8
tp813
a(S'capture'
I8
tp814
a(S'regularisation'
I8
tp815
a(S'markov'
I7
tp816
a(S'cost'
I7
tp817
asS'Mordohai12eccv'
p818
(lp819
(S'motion'
I44
tp820
a(S'flow'
I40
tp821
a(S'scene'
I39
tp822
a(S'estimation'
I30
tp823
a(S'shape'
I25
tp824
a(S'depth'
I25
tp825
a(S'methods'
I23
tp826
a(S'stereo'
I21
tp827
a(S'ground'
I20
tp828
a(S'evaluation'
I19
tp829
a(S'truth'
I18
tp830
a(S'video'
I13
tp831
a(S'temporal'
I13
tp832
a(S'dense'
I13
tp833
a(S'multi-view'
I12
tp834
a(S'surface'
I11
tp835
a(S'data'
I10
tp836
a(S'prediction'
I9
tp837
a(S'optical'
I9
tp838
a(S'sequences'
I9
tp839
a(S'capture'
I9
tp840
a(S'images'
I9
tp841
a(S'image'
I9
tp842
a(S'dynamic'
I8
tp843
a(S'synthetic'
I8
tp844
a(S'reconstruction'
I8
tp845
a(S'estimate'
I8
tp846
a(S'scenes'
I8
tp847
a(S'dierent'
I8
tp848
a(S'estimated'
I7
tp849
a(S'camera'
I7
tp850
a(S'frames'
I7
tp851
a(S'accuracy'
I7
tp852
a(S'points'
I7
tp853
a(S'graphics'
I7
tp854
a(S'disparity'
I7
tp855
a(S'ijcv'
I7
tp856
a(S'time'
I7
tp857
a(S'eort'
I6
tp858
a(S'technique'
I6
tp859
a(S'consistent'
I6
tp860
a(S'mesh'
I6
tp861
a(S'correspondence'
I6
tp862
a(S'generate'
I6
tp863
a(S'number'
I6
tp864
a(S'mordohai'
I6
tp865
a(S'approach'
I6
tp866
a(S'view'
I6
tp867
a(S'consistency'
I6
tp868
a(S'algorithm'
I6
tp869
a(S'estimates'
I5
tp870
a(S'rigid'
I5
tp871
a(S'applications'
I5
tp872
a(S'algorithms'
I5
tp873
a(S'static'
I5
tp874
a(S'long'
I5
tp875
a(S'variational'
I5
tp876
a(S'pixels'
I5
tp877
a(S'generating'
I5
tp878
a(S'evaluating'
I5
tp879
a(S'temporally'
I5
tp880
a(S'matching'
I5
tp881
a(S'lidar'
I5
tp882
a(S'models'
I5
tp883
a(S'consider'
I4
tp884
a(S'include'
I4
tp885
a(S'small'
I4
tp886
a(S'errors'
I4
tp887
a(S'method'
I4
tp888
a(S'spatio-temporal'
I4
tp889
a(S'criteria'
I4
tp890
a(S'criterion'
I4
tp891
a(S'recovery'
I4
tp892
a(S'cameras'
I4
tp893
a(S'require'
I4
tp894
a(S'spatiotemporal'
I4
tp895
a(S'correspondences'
I4
tp896
a(S'frame'
I4
tp897
a(S'computer'
I4
tp898
a(S'surfaces'
I4
tp899
a(S'state'
I4
tp900
a(S'pami'
I4
tp901
a(S'three'
I4
tp902
a(S'accurate'
I4
tp903
a(S'input'
I4
tp904
a(S'real'
I4
tp905
a(S'background'
I4
tp906
a(S'markers'
I4
tp907
a(S'acm'
I4
tp908
a(S'space-time'
I4
tp909
a(S'binocular'
I4
tp910
a(S'global'
I3
tp911
a(S'non-rigid'
I3
tp912
a(S'patches'
I3
tp913
a(S'cviu'
I3
tp914
a(S'real-time'
I3
tp915
a(S'work'
I3
tp916
a(S'growing'
I3
tp917
a(S'synchronized'
I3
tp918
a(S'markerless'
I3
tp919
asS'Jaimez15icra'
p920
(lp921
(S'flow'
I104
tp922
a(S'scene'
I55
tp923
a(S'motion'
I37
tp924
a(S'rgb-d'
I37
tp925
a(S'depth'
I33
tp926
a(S'image'
I29
tp927
a(S'field'
I27
tp928
a(S'optical'
I24
tp929
a(S'images'
I19
tp930
a(S'data'
I18
tp931
a(S'computer'
I18
tp932
a(S'range'
I18
tp933
a(S'regularization'
I16
tp934
a(S'variational'
I16
tp935
a(S'primal-dual'
I15
tp936
a(S'term'
I14
tp937
a(S'vision'
I14
tp938
a(S'conference'
I14
tp939
a(S'algorithm'
I14
tp940
a(S'frame'
I13
tp941
a(S'presented'
I11
tp942
a(S'real'
I11
tp943
a(S'real-time'
I10
tp944
a(S'work'
I10
tp945
a(S'intensity'
I10
tp946
a(S'geometric'
I10
tp947
a(S'approach'
I10
tp948
a(S'compute'
I10
tp949
a(S'formulation'
I10
tp950
a(S'high'
I9
tp951
a(S'temporal'
I9
tp952
a(S'observed'
I9
tp953
a(S'points'
I9
tp954
a(S'pixels'
I9
tp955
a(S'surface'
I9
tp956
a(S'accurate'
I9
tp957
a(S'gradients'
I9
tp958
a(S'values'
I8
tp959
a(S'weighted'
I8
tp960
a(S'stereo'
I8
tp961
a(S'color'
I8
tp962
a(S'dual'
I8
tp963
a(S'global'
I7
tp964
a(S'approximation'
I7
tp965
a(S'problem'
I7
tp966
a(S'magnitude'
I7
tp967
a(S'dxdy'
I7
tp968
a(S'standard'
I7
tp969
a(S'estimate'
I7
tp970
a(S'set'
I7
tp971
a(S'estimation'
I7
tp972
a(S'respect'
I7
tp973
a(S'applied'
I7
tp974
a(S'quantitative'
I7
tp975
a(S'qualitative'
I7
tp976
a(S'regularizer'
I7
tp977
a(S'dense'
I7
tp978
a(S'norm'
I6
tp979
a(S'objects'
I6
tp980
a(S'camera'
I6
tp981
a(S'estimated'
I6
tp982
a(S'weighting'
I6
tp983
a(S'filter'
I6
tp984
a(S'order'
I6
tp985
a(S'represents'
I6
tp986
a(S'cameras'
I6
tp987
a(S'geometry'
I6
tp988
a(S'pd-flow'
I6
tp989
a(S'table'
I6
tp990
a(S'gpu'
I6
tp991
a(S'accuracy'
I6
tp992
a(S'based'
I6
tp993
a(S'local'
I6
tp994
a(S'computed'
I6
tp995
a(S'close'
I6
tp996
a(S'proposed'
I6
tp997
a(S'function'
I6
tp998
a(S'time'
I6
tp999
a(S'non-rigid'
I5
tp1000
a(S'solution'
I5
tp1001
a(S'international'
I5
tp1002
a(S'equations'
I5
tp1003
a(S'apply'
I5
tp1004
a(S'associated'
I5
tp1005
a(S'representation'
I5
tp1006
a(S'estimating'
I5
tp1007
a(S'brightness'
I5
tp1008
a(S'solver'
I5
tp1009
a(S'red'
I5
tp1010
a(S'scheme'
I5
tp1011
a(S'performance'
I5
tp1012
a(S'implementation'
I5
tp1013
a(S'rgbd'
I5
tp1014
a(S'median'
I5
tp1015
a(S'terms'
I5
tp1016
a(S'movements'
I5
tp1017
a(S'consistency'
I5
tp1018
a(S'tvg'
I5
tp1019
a(S'constraint'
I5
tp1020
a(S'fast'
I5
tp1021
asS'Jaesik12eccv'
p1022
(lp1023
(S'scene'
I173
tp1024
a(S'flow'
I168
tp1025
a(S'point'
I58
tp1026
a(S'approach'
I42
tp1027
a(S'estimated'
I36
tp1028
a(S'optical'
I28
tp1029
a(S'points'
I25
tp1030
a(S'direction'
I25
tp1031
a(S'surface'
I25
tp1032
a(S'estimation'
I23
tp1033
a(S'tensor'
I22
tp1034
a(S'cloud'
I21
tp1035
a(S'magnitude'
I21
tp1036
a(S'refinement'
I20
tp1037
a(S'normal'
I18
tp1038
a(S'stereo'
I18
tp1039
a(S'estimate'
I17
tp1040
a(S'multi-view'
I17
tp1041
a(S'image'
I17
tp1042
a(S'time'
I17
tp1043
a(S'neighborhood'
I16
tp1044
a(S'model'
I16
tp1045
a(S'cftv'
I15
tp1046
a(S'motion'
I14
tp1047
a(S'voting'
I14
tp1048
a(S'depth'
I14
tp1049
a(S'data'
I13
tp1050
a(S'temporal'
I13
tp1051
a(S'initial'
I13
tp1052
a(S'reconstruction'
I12
tp1053
a(S'figure'
I12
tp1054
a(S'mesh'
I11
tp1055
a(S'equation'
I11
tp1056
a(S'function'
I11
tp1057
a(S'defined'
I11
tp1058
a(S'structure'
I11
tp1059
a(S'error'
I10
tp1060
a(S'map'
I9
tp1061
a(S'refined'
I9
tp1062
a(S'algorithm'
I9
tp1063
a(S'second'
I8
tp1064
a(S'camera'
I8
tp1065
a(S'approaches'
I8
tp1066
a(S'clouds'
I7
tp1067
a(S'video'
I7
tp1068
a(S'errors'
I7
tp1069
a(S'takes'
I7
tp1070
a(S'reconstructed'
I7
tp1071
a(S'refine'
I7
tp1072
a(S'regularization'
I7
tp1073
a(S'decay'
I7
tp1074
a(S'park'
I7
tp1075
a(S'based'
I7
tp1076
a(S'handle'
I7
tp1077
a(S'pixels'
I7
tp1078
a(S'outliers'
I7
tp1079
a(S'location'
I7
tp1080
a(S'dense'
I7
tp1081
a(S'noisy'
I7
tp1082
a(S'neighbor'
I7
tp1083
a(S'dataset'
I7
tp1084
a(S'represent'
I6
tp1085
a(S'synthetic'
I6
tp1086
a(S'connects'
I6
tp1087
a(S'process'
I6
tp1088
a(S'order'
I6
tp1089
a(S'deformation'
I6
tp1090
a(S'framework'
I6
tp1091
a(S'smoothness'
I6
tp1092
a(S'evaluation'
I6
tp1093
a(S'basha'
I6
tp1094
a(S'saliency'
I6
tp1095
a(S'view'
I6
tp1096
a(S'surfel'
I6
tp1097
a(S'well'
I6
tp1098
a(S'cvpr'
I6
tp1099
a(S'previous'
I6
tp1100
a(S'discontinuities'
I6
tp1101
a(S'images'
I6
tp1102
a(S'compute'
I6
tp1103
a(S'implicit'
I5
tp1104
a(S'ijcv'
I5
tp1105
a(S'stereoscopic'
I5
tp1106
a(S'comparing'
I5
tp1107
a(S'sphere'
I5
tp1108
a(S'algorithms'
I5
tp1109
a(S'better'
I5
tp1110
a(S'square'
I5
tp1111
a(S'weight'
I5
tp1112
a(S'cameras'
I5
tp1113
a(S'locations'
I5
tp1114
a(S'note'
I5
tp1115
a(S'accuracy'
I5
tp1116
a(S'ground'
I5
tp1117
a(S'consecutive'
I5
tp1118
a(S'closed'
I5
tp1119
a(S'table'
I5
tp1120
a(S'heidelberg'
I5
tp1121
a(S'huguet'
I5
tp1122
a(S'field'
I5
tp1123
asS'Hadfield14pami'
p1124
(lp1125
(S'scene'
I146
tp1126
a(S'motion'
I76
tp1127
a(S'flow'
I71
tp1128
a(S'estimation'
I52
tp1129
a(S'particles'
I45
tp1130
a(S'particle'
I43
tp1131
a(S'depth'
I40
tp1132
a(S'ieee'
I36
tp1133
a(S'computer'
I36
tp1134
a(S'algorithm'
I36
tp1135
a(S'vision'
I33
tp1136
a(S'appearance'
I25
tp1137
a(S'image'
I25
tp1138
a(S'structure'
I24
tp1139
a(S'approach'
I23
tp1140
a(S'number'
I22
tp1141
a(S'data'
I21
tp1142
a(S'performance'
I21
tp1143
a(S'tracking'
I20
tp1144
a(S'pattern'
I19
tp1145
a(S'optical'
I18
tp1146
a(S'ray'
I18
tp1147
a(S'previous'
I18
tp1148
a(S'sensors'
I17
tp1149
a(S'set'
I17
tp1150
a(S'probability'
I16
tp1151
a(S'stereo'
I16
tp1152
a(S'techniques'
I16
tp1153
a(S'analysis'
I16
tp1154
a(S'single'
I16
tp1155
a(S'estimated'
I15
tp1156
a(S'machine'
I15
tp1157
a(S'standard'
I15
tp1158
a(S'accuracy'
I15
tp1159
a(S'occlusion'
I15
tp1160
a(S'field'
I15
tp1161
a(S'prior'
I14
tp1162
a(S'smoothness'
I14
tp1163
a(S'approaches'
I14
tp1164
a(S'smoothing'
I14
tp1165
a(S'population'
I13
tp1166
a(S'frame'
I13
tp1167
a(S'error'
I13
tp1168
a(S'gaussian'
I13
tp1169
a(S'resampling'
I13
tp1170
a(S'performed'
I12
tp1171
a(S'hypotheses'
I12
tp1172
a(S'observations'
I12
tp1173
a(S'filtering'
I12
tp1174
a(S'visibility'
I11
tp1175
a(S'magnitude'
I11
tp1176
a(S'sensor'
I11
tp1177
a(S'note'
I11
tp1178
a(S'multiple'
I11
tp1179
a(S'noise'
I11
tp1180
a(S'presented'
I10
tp1181
a(S'sign'
I10
tp1182
a(S'current'
I10
tp1183
a(S'varying'
I10
tp1184
a(S'estimating'
I10
tp1185
a(S'estimate'
I10
tp1186
a(S'object'
I10
tp1187
a(S'velocity'
I10
tp1188
a(S'based'
I10
tp1189
a(S'table'
I10
tp1190
a(S'matching'
I10
tp1191
a(S'recognition'
I10
tp1192
a(S'applied'
I9
tp1193
a(S'likelihood'
I9
tp1194
a(S'additional'
I9
tp1195
a(S'hadfield'
I9
tp1196
a(S'sequences'
I9
tp1197
a(S'frames'
I9
tp1198
a(S'errors'
I8
tp1199
a(S'provide'
I8
tp1200
a(S'2014'
I8
tp1201
a(S'university'
I8
tp1202
a(S'constraints'
I8
tp1203
a(S'points'
I8
tp1204
a(S'accurate'
I8
tp1205
a(S'leads'
I7
tp1206
a(S'particle-based'
I7
tp1207
a(S'allows'
I7
tp1208
a(S'directional'
I7
tp1209
a(S'language'
I7
tp1210
a(S'system'
I7
tp1211
a(S'probabilistic'
I7
tp1212
a(S'oversmoothing'
I7
tp1213
a(S'analyzed'
I7
tp1214
a(S'propagation'
I7
tp1215
a(S'transactions'
I7
tp1216
a(S'unregularized'
I7
tp1217
a(S'march'
I7
tp1218
a(S'images'
I7
tp1219
a(S'dense'
I7
tp1220
a(S'function'
I7
tp1221
a(S'computation'
I6
tp1222
a(S'technique'
I6
tp1223
a(S'large'
I6
tp1224
a(S'three-dimensional'
I6
tp1225
asS'Zhang00cvpr'
p1226
(lp1227
(S'motion'
I98
tp1228
a(S'stereo'
I57
tp1229
a(S'image'
I53
tp1230
a(S'scene'
I48
tp1231
a(S'structure'
I47
tp1232
a(S'model'
I31
tp1233
a(S'constraints'
I27
tp1234
a(S'optical'
I27
tp1235
a(S'camera'
I23
tp1236
a(S'local'
I21
tp1237
a(S'point'
I20
tp1238
a(S'frame'
I19
tp1239
a(S'algorithm'
I17
tp1240
a(S'small'
I14
tp1241
a(S'figure'
I14
tp1242
a(S'sequences'
I14
tp1243
a(S'system'
I13
tp1244
a(S'regularization'
I12
tp1245
a(S'depth'
I12
tp1246
a(S'region'
I11
tp1247
a(S'analysis'
I11
tp1248
a(S'assume'
I11
tp1249
a(S'non-rigid'
I10
tp1250
a(S'frames'
I10
tp1251
a(S'recursive'
I9
tp1252
a(S'rst'
I9
tp1253
a(S'initial'
I9
tp1254
a(S'synthetic'
I8
tp1255
a(S'order'
I8
tp1256
a(S'ieee'
I8
tp1257
a(S'cameras'
I8
tp1258
a(S'recovered'
I8
tp1259
a(S'computed'
I8
tp1260
a(S'represented'
I8
tp1261
a(S'tting'
I8
tp1262
a(S'2000'
I8
tp1263
a(S'reco'
I7
tp1264
a(S'method'
I7
tp1265
a(S'simultaneously'
I7
tp1266
a(S'estimate'
I7
tp1267
a(S'flow'
I7
tp1268
a(S'correspondences'
I7
tp1269
a(S'eld'
I7
tp1270
a(S'dense'
I7
tp1271
a(S'constraint'
I7
tp1272
a(S'eof'
I7
tp1273
a(S'multiview'
I6
tp1274
a(S'nonrigid'
I6
tp1275
a(S'non-linear'
I6
tp1276
a(S'error'
I6
tp1277
a(S'work'
I6
tp1278
a(S'robust'
I6
tp1279
a(S'solve'
I6
tp1280
a(S'sequence'
I6
tp1281
a(S'images'
I6
tp1282
a(S'successive'
I6
tp1283
a(S'presented'
I5
tp1284
a(S'vector'
I5
tp1285
a(S'monocular'
I5
tp1286
a(S'ned'
I5
tp1287
a(S'approach'
I5
tp1288
a(S'bene'
I5
tp1289
a(S'designed'
I5
tp1290
a(S'recovery'
I5
tp1291
a(S'algorithms'
I5
tp1292
a(S'correspondence'
I5
tp1293
a(S'basic'
I5
tp1294
a(S'real'
I5
tp1295
a(S'een'
I5
tp1296
a(S'matching'
I5
tp1297
a(S'binocular'
I5
tp1298
a(S'priori'
I5
tp1299
a(S'estimation'
I5
tp1300
a(S'dynamic'
I4
tp1301
a(S'unknowns'
I4
tp1302
a(S'model-based'
I4
tp1303
a(S'rigid'
I4
tp1304
a(S'optimal'
I4
tp1305
a(S'plane'
I4
tp1306
a(S'integrated'
I4
tp1307
a(S'constr'
I4
tp1308
a(S'guess'
I4
tp1309
a(S'unknown'
I4
tp1310
a(S'multiple'
I4
tp1311
a(S'considered'
I4
tp1312
a(S'points'
I4
tp1313
a(S'erent'
I4
tp1314
a(S'experiments'
I4
tp1315
a(S'set'
I4
tp1316
a(S'moving'
I4
tp1317
a(S'kno'
I4
tp1318
a(S'disparity'
I4
tp1319
a(S'corel'
I4
tp1320
a(S'betw'
I4
tp1321
a(S'assuming'
I4
tp1322
a(S'analyses'
I4
tp1323
a(S'complete'
I4
tp1324
a(S'eac'
I4
tp1325
a(S'compute'
I4
tp1326
a(S'zhou'
I4
tp1327
asS'Spies02cviu'
p1328
(lp1329
(S'flow'
I107
tp1330
a(S'range'
I88
tp1331
a(S'data'
I48
tp1332
a(S'error'
I45
tp1333
a(S'constraint'
I44
tp1334
a(S'intensity'
I35
tp1335
a(S'estimation'
I35
tp1336
a(S'motion'
I33
tp1337
a(S'velocity'
I26
tp1338
a(S'tls'
I25
tp1339
a(S'equation'
I24
tp1340
a(S'solution'
I23
tp1341
a(S'plane'
I23
tp1342
a(S'full'
I22
tp1343
a(S'relative'
I20
tp1344
a(S'depth'
I20
tp1345
a(S'sensor'
I19
tp1346
a(S'local'
I19
tp1347
a(S'synthetic'
I17
tp1348
a(S'vector'
I17
tp1349
a(S'computed'
I17
tp1350
a(S'surface'
I17
tp1351
a(S'field'
I16
tp1352
a(S'example'
I15
tp1353
a(S'linear'
I15
tp1354
a(S'normal'
I15
tp1355
a(S'image'
I15
tp1356
a(S'regularization'
I14
tp1357
a(S'estimate'
I14
tp1358
a(S'equations'
I13
tp1359
a(S'order'
I13
tp1360
a(S'barron'
I13
tp1361
a(S'optical'
I13
tp1362
a(S'accuracy'
I13
tp1363
a(S'ein'
I13
tp1364
a(S'real'
I13
tp1365
a(S'test'
I13
tp1366
a(S'directional'
I13
tp1367
a(S'compute'
I13
tp1368
a(S'movement'
I12
tp1369
a(S'derivatives'
I12
tp1370
a(S'noise'
I12
tp1371
a(S'leaf'
I12
tp1372
a(S'structure'
I12
tp1373
a(S'estimated'
I11
tp1374
a(S'eigenvalue'
I11
tp1375
a(S'total'
I10
tp1376
a(S'three'
I10
tp1377
a(S'yields'
I10
tp1378
a(S'algorithm'
I10
tp1379
a(S'minimum'
I9
tp1380
a(S'horizontal'
I9
tp1381
a(S'energy'
I9
tp1382
a(S'displacement'
I9
tp1383
a(S'considered'
I9
tp1384
a(S'respect'
I9
tp1385
a(S'described'
I9
tp1386
a(S'dense'
I9
tp1387
a(S'problem'
I9
tp1388
a(S'constant'
I9
tp1389
a(S'sphere'
I8
tp1390
a(S'squares'
I8
tp1391
a(S'note'
I8
tp1392
a(S'performance'
I8
tp1393
a(S'vision'
I8
tp1394
a(S'observed'
I8
tp1395
a(S'direction'
I8
tp1396
a(S'case'
I8
tp1397
a(S'planar'
I8
tp1398
a(S'encountered'
I8
tp1399
a(S'movements'
I8
tp1400
a(S'depending'
I8
tp1401
a(S'norm'
I7
tp1402
a(S'parameters'
I7
tp1403
a(S'confidence'
I7
tp1404
a(S'aperture'
I7
tp1405
a(S'values'
I7
tp1406
a(S'types'
I7
tp1407
a(S'correct'
I7
tp1408
a(S'directly'
I7
tp1409
a(S'vertical'
I7
tp1410
a(S'sequences'
I7
tp1411
a(S'components'
I7
tp1412
a(S'additional'
I7
tp1413
a(S'function'
I7
tp1414
a(S'computation'
I6
tp1415
a(S'neighborhood'
I6
tp1416
a(S'expressed'
I6
tp1417
a(S'method'
I6
tp1418
a(S'changes'
I6
tp1419
a(S'parameter'
I6
tp1420
a(S'light'
I6
tp1421
a(S'paper'
I6
tp1422
a(S'magnitude'
I6
tp1423
a(S'structured'
I6
tp1424
a(S'find'
I6
tp1425
a(S'e14'
I6
tp1426
a(S'tensor'
I6
tp1427
a(S'written'
I6
tp1428
a(S'point'
I6
tp1429
asS'Vogel13iccv'
p1430
(lp1431
(S'flow'
I85
tp1432
a(S'scene'
I70
tp1433
a(S'motion'
I62
tp1434
a(S'stereo'
I41
tp1435
a(S'optical'
I33
tp1436
a(S'pixel'
I30
tp1437
a(S'segment'
I30
tp1438
a(S'data'
I27
tp1439
a(S'occlusion'
I25
tp1440
a(S'pixels'
I22
tp1441
a(S'moving'
I22
tp1442
a(S'term'
I20
tp1443
a(S'image'
I20
tp1444
a(S'segmentation'
I19
tp1445
a(S'rigid'
I19
tp1446
a(S'estimation'
I19
tp1447
a(S'reference'
I17
tp1448
a(S'regularization'
I16
tp1449
a(S'set'
I15
tp1450
a(S'proposal'
I15
tp1451
a(S'energy'
I14
tp1452
a(S'plane'
I13
tp1453
a(S'model'
I13
tp1454
a(S'depth'
I12
tp1455
a(S'segments'
I11
tp1456
a(S'kitti'
I11
tp1457
a(S'method'
I11
tp1458
a(S'estimate'
I11
tp1459
a(S'rigidly'
I11
tp1460
a(S'piecewise'
I11
tp1461
a(S'planes'
I11
tp1462
a(S'consider'
I10
tp1463
a(S'geometry'
I10
tp1464
a(S'penalty'
I10
tp1465
a(S'view'
I10
tp1466
a(S'boundary'
I10
tp1467
a(S'optimization'
I10
tp1468
a(S'assigned'
I10
tp1469
a(S'disparity'
I10
tp1470
a(S'dense'
I10
tp1471
a(S'time'
I10
tp1472
a(S'note'
I9
tp1473
a(S'well'
I9
tp1474
a(S'initial'
I9
tp1475
a(S'dataset'
I8
tp1476
a(S'eccv'
I8
tp1477
a(S'error'
I8
tp1478
a(S'shape'
I8
tp1479
a(S'field'
I8
tp1480
a(S'large'
I7
tp1481
a(S'cvpr'
I7
tp1482
a(S'challenging'
I7
tp1483
a(S'binary'
I7
tp1484
a(S'approaches'
I7
tp1485
a(S'ground'
I7
tp1486
a(S'approach'
I7
tp1487
a(S'case'
I7
tp1488
a(S'robust'
I7
tp1489
a(S'smooth'
I7
tp1490
a(S'assume'
I7
tp1491
a(S'estimated'
I6
tp1492
a(S'inference'
I6
tp1493
a(S'epipolar'
I6
tp1494
a(S'regions'
I6
tp1495
a(S'algorithms'
I6
tp1496
a(S'truth'
I6
tp1497
a(S'mapping'
I6
tp1498
a(S'pairs'
I6
tp1499
a(S'distance'
I6
tp1500
a(S'object'
I6
tp1501
a(S'boundaries'
I6
tp1502
a(S'pil'
I6
tp1503
a(S'define'
I6
tp1504
a(S'planar'
I6
tp1505
a(S'function'
I6
tp1506
a(S'reasoning'
I5
tp1507
a(S'vector'
I5
tp1508
a(S'respective'
I5
tp1509
a(S'explicit'
I5
tp1510
a(S'estimating'
I5
tp1511
a(S'views'
I5
tp1512
a(S'encourage'
I5
tp1513
a(S'evaluation'
I5
tp1514
a(S'per-pixel'
I5
tp1515
a(S'superpixels'
I5
tp1516
a(S'variational'
I5
tp1517
a(S'outperforms'
I5
tp1518
a(S'normal'
I5
tp1519
a(S'average'
I5
tp1520
a(S'minimizing'
I5
tp1521
a(S'based'
I5
tp1522
a(S'parameters'
I5
tp1523
a(S'local'
I5
tp1524
a(S'fixed'
I5
tp1525
a(S'techniques'
I5
tp1526
a(S'il0'
I5
tp1527
a(S'terms'
I5
tp1528
a(S'locally'
I5
tp1529
a(S'corresponding'
I5
tp1530
a(S'endpoints'
I5
tp1531
asS'Lv16eccv'
p1532
(lp1533
(S'flow'
I75
tp1534
a(S'scene'
I71
tp1535
a(S'motion'
I55
tp1536
a(S'stereo'
I29
tp1537
a(S'factor'
I28
tp1538
a(S'optimization'
I28
tp1539
a(S'continuous'
I23
tp1540
a(S'plane'
I22
tp1541
a(S'estimation'
I21
tp1542
a(S'set'
I20
tp1543
a(S'reference'
I19
tp1544
a(S'error'
I19
tp1545
a(S'factors'
I19
tp1546
a(S'census'
I18
tp1547
a(S'method'
I16
tp1548
a(S'optical'
I16
tp1549
a(S'frame'
I16
tp1550
a(S'graph'
I15
tp1551
a(S'problem'
I14
tp1552
a(S'image'
I14
tp1553
a(S'superpixel'
I14
tp1554
a(S'superpixels'
I13
tp1555
a(S'approach'
I13
tp1556
a(S'transform'
I13
tp1557
a(S'depth'
I13
tp1558
a(S'min'
I12
tp1559
a(S'ieee'
I11
tp1560
a(S'estimate'
I11
tp1561
a(S'planar'
I11
tp1562
a(S'disparity'
I11
tp1563
a(S'planes'
I11
tp1564
a(S'kitti'
I10
tp1565
a(S'vision'
I10
tp1566
a(S'conference'
I10
tp1567
a(S'computer'
I10
tp1568
a(S'rigid'
I10
tp1569
a(S'geometry'
I9
tp1570
a(S'errors'
I9
tp1571
a(S'heidelberg'
I9
tp1572
a(S'solve'
I9
tp1573
a(S'matching'
I9
tp1574
a(S'prior'
I8
tp1575
a(S'ransac'
I8
tp1576
a(S'cope'
I8
tp1577
a(S'pattern'
I8
tp1578
a(S'hypothesis'
I8
tp1579
a(S'sparse'
I8
tp1580
a(S'global'
I7
tp1581
a(S'cost'
I7
tp1582
a(S'estimated'
I7
tp1583
a(S'camera'
I7
tp1584
a(S'homography'
I7
tp1585
a(S'eccv'
I7
tp1586
a(S'discrete'
I7
tp1587
a(S'initialize'
I7
tp1588
a(S'point'
I7
tp1589
a(S'moving'
I7
tp1590
a(S'robust'
I7
tp1591
a(S'table'
I7
tp1592
a(S'images'
I7
tp1593
a(S'segmentation'
I6
tp1594
a(S'hypotheses'
I6
tp1595
a(S'pixel'
I6
tp1596
a(S'based'
I6
tp1597
a(S'distance'
I6
tp1598
a(S'joint'
I6
tp1599
a(S'initialization'
I6
tp1600
a(S'accurate'
I6
tp1601
a(S'recognition'
I6
tp1602
a(S'test'
I6
tp1603
a(S'assume'
I6
tp1604
a(S'large'
I5
tp1605
a(S'nonlinear'
I5
tp1606
a(S'international'
I5
tp1607
a(S'figure'
I5
tp1608
a(S'representation'
I5
tp1609
a(S'temporal'
I5
tp1610
a(S'better'
I5
tp1611
a(S'matches'
I5
tp1612
a(S'propose'
I5
tp1613
a(S'evaluation'
I5
tp1614
a(S'assumption'
I5
tp1615
a(S'efficient'
I5
tp1616
a(S'accuracy'
I5
tp1617
a(S'parameters'
I5
tp1618
a(S'achieve'
I5
tp1619
a(S't01'
I5
tp1620
a(S'achieved'
I5
tp1621
a(S'pixels'
I5
tp1622
a(S'piecewise'
I5
tp1623
a(S'evaluate'
I5
tp1624
a(S'semi-dense'
I5
tp1625
a(S'dense'
I5
tp1626
a(S'd-1'
I5
tp1627
a(S'measurements'
I5
tp1628
a(S'noise'
I5
tp1629
a(S'smooth'
I5
tp1630
a(S'compared'
I5
tp1631
a(S'faster'
I5
tp1632
a(S'non-rigid'
I4
tp1633
asS'Ushani17icra'
p1634
(lp1635
(S'flow'
I104
tp1636
a(S'scene'
I94
tp1637
a(S'occupancy'
I47
tp1638
a(S'temporal'
I29
tp1639
a(S'error'
I28
tp1640
a(S'background'
I28
tp1641
a(S'lidar'
I28
tp1642
a(S'estimate'
I26
tp1643
a(S'raw'
I24
tp1644
a(S'age'
I24
tp1645
a(S'kitti'
I22
tp1646
a(S'data'
I20
tp1647
a(S'filter'
I18
tp1648
a(S'tracking'
I18
tp1649
a(S'motion'
I17
tp1650
a(S'tracklets'
I17
tp1651
a(S'method'
I16
tp1652
a(S'columns'
I16
tp1653
a(S'ct-1'
I16
tp1654
a(S'compute'
I16
tp1655
a(S'dynamic'
I15
tp1656
a(S'sensor'
I15
tp1657
a(S'observations'
I15
tp1658
a(S'gt-1'
I15
tp1659
a(S'objects'
I14
tp1660
a(S'real-time'
I14
tp1661
a(S'feature'
I14
tp1662
a(S'obstacle'
I14
tp1663
a(S'grid'
I14
tp1664
a(S'location'
I12
tp1665
a(S'runtime'
I12
tp1666
a(S'labeled'
I11
tp1667
a(S'ieee'
I11
tp1668
a(S'point'
I11
tp1669
a(S'measurements'
I11
tp1670
a(S'column'
I11
tp1671
a(S'rely'
I11
tp1672
a(S'algorithm'
I11
tp1673
a(S'find'
I10
tp1674
a(S'tracklet'
I10
tp1675
a(S'autonomous'
I10
tp1676
a(S'magnitude'
I9
tp1677
a(S'provide'
I9
tp1678
a(S'binary'
I9
tp1679
a(S'framework'
I9
tp1680
a(S'free'
I9
tp1681
a(S'training'
I9
tp1682
a(S'performance'
I9
tp1683
a(S'fraction'
I9
tp1684
a(S'vector'
I8
tp1685
a(S'static'
I8
tp1686
a(S'construct'
I8
tp1687
a(S'note'
I8
tp1688
a(S'successive'
I8
tp1689
a(S'constancy'
I8
tp1690
a(S'computed'
I8
tp1691
a(S'state'
I8
tp1692
a(S'ground'
I7
tp1693
a(S'table'
I7
tp1694
a(S'sensors'
I7
tp1695
a(S'vehicle'
I7
tp1696
a(S'work'
I7
tp1697
a(S'build'
I7
tp1698
a(S'vectors'
I7
tp1699
a(S'filtered'
I7
tp1700
a(S'evaluate'
I7
tp1701
a(S'grids'
I7
tp1702
a(S'step'
I7
tp1703
a(S'problem'
I7
tp1704
a(S'resolution'
I7
tp1705
a(S'neighborhood'
I6
tp1706
a(S'decision'
I6
tp1707
a(S'process'
I6
tp1708
a(S'maps'
I6
tp1709
a(S'energy'
I6
tp1710
a(S'extract'
I6
tp1711
a(S'accuracy'
I6
tp1712
a(S'detection'
I6
tp1713
a(S'estimation'
I6
tp1714
a(S'filtering'
I6
tp1715
a(S'proposed'
I6
tp1716
a(S'accurate'
I6
tp1717
a(S'previous'
I6
tp1718
a(S'methods'
I6
tp1719
a(S'object'
I6
tp1720
a(S'presented'
I5
tp1721
a(S'estimates'
I5
tp1722
a(S'learned'
I5
tp1723
a(S'full'
I5
tp1724
a(S'allows'
I5
tp1725
a(S'prior'
I5
tp1726
a(S'formulate'
I5
tp1727
a(S'measurement'
I5
tp1728
a(S'foreground'
I5
tp1729
a(S'approaches'
I5
tp1730
a(S'scans'
I5
tp1731
a(S'plane'
I5
tp1732
a(S'relative'
I5
tp1733
a(S'class'
I5
tp1734
a(S'velocity'
I5
tp1735
asS'Wang14accv'
p1736
(lp1737
(S'flow'
I114
tp1738
a(S'scene'
I85
tp1739
a(S'motion'
I81
tp1740
a(S'rgb-d'
I49
tp1741
a(S'local'
I45
tp1742
a(S'method'
I44
tp1743
a(S'point'
I39
tp1744
a(S'optical'
I37
tp1745
a(S'global'
I28
tp1746
a(S'image'
I24
tp1747
a(S'depth'
I23
tp1748
a(S'displacement'
I22
tp1749
a(S'completed'
I22
tp1750
a(S'points'
I21
tp1751
a(S'large'
I20
tp1752
a(S'occlusion'
I20
tp1753
a(S'methods'
I20
tp1754
a(S'data'
I19
tp1755
a(S'ieee'
I19
tp1756
a(S'cost'
I16
tp1757
a(S'estimation'
I16
tp1758
a(S'middlebury'
I16
tp1759
a(S'framework'
I15
tp1760
a(S'reference'
I15
tp1761
a(S'values'
I14
tp1762
a(S'color'
I14
tp1763
a(S'matching'
I14
tp1764
a(S'dense'
I14
tp1765
a(S'target'
I13
tp1766
a(S'set'
I13
tp1767
a(S'surface'
I13
tp1768
a(S'supporting'
I12
tp1769
a(S'rotation'
I12
tp1770
a(S'neighboring'
I12
tp1771
a(S'space'
I11
tp1772
a(S'computer'
I11
tp1773
a(S'images'
I11
tp1774
a(S'international'
I10
tp1775
a(S'maps'
I10
tp1776
a(S'smoothness'
I10
tp1777
a(S'generate'
I10
tp1778
a(S'translation'
I10
tp1779
a(S'random'
I10
tp1780
a(S'good'
I9
tp1781
a(S'nrdc'
I9
tp1782
a(S'principal'
I9
tp1783
a(S'vision'
I9
tp1784
a(S'error'
I9
tp1785
a(S'model'
I9
tp1786
a(S'initial'
I9
tp1787
a(S'estimate'
I8
tp1788
a(S'challenging'
I8
tp1789
a(S'map'
I8
tp1790
a(S'approaches'
I8
tp1791
a(S'distance'
I8
tp1792
a(S'based'
I8
tp1793
a(S'pattern'
I8
tp1794
a(S'transactions'
I8
tp1795
a(S'patterns'
I8
tp1796
a(S'kinect'
I8
tp1797
a(S'conference'
I8
tp1798
a(S'row'
I8
tp1799
a(S'reliability'
I8
tp1800
a(S'field'
I8
tp1801
a(S'address'
I7
tp1802
a(S'ratio'
I7
tp1803
a(S'length'
I7
tp1804
a(S'authors'
I7
tp1805
a(S'missing'
I7
tp1806
a(S'modeling'
I7
tp1807
a(S'suppressed'
I7
tp1808
a(S'robust'
I7
tp1809
a(S'excessive'
I7
tp1810
a(S'captured'
I7
tp1811
a(S'candidate'
I7
tp1812
a(S'area'
I7
tp1813
a(S'compute'
I7
tp1814
a(S'direction'
I7
tp1815
a(S'euclidean'
I6
tp1816
a(S'ground'
I6
tp1817
a(S'three'
I6
tp1818
a(S'tracking'
I6
tp1819
a(S'machine'
I6
tp1820
a(S'tshirt4'
I6
tp1821
a(S'handle'
I6
tp1822
a(S'computed'
I6
tp1823
a(S'result'
I6
tp1824
a(S'considering'
I6
tp1825
a(S'corresponding'
I6
tp1826
a(S'analysis'
I6
tp1827
a(S'rgb'
I6
tp1828
a(S'function'
I6
tp1829
a(S'small'
I5
tp1830
a(S'estimated'
I5
tp1831
a(S'rgbd'
I5
tp1832
a(S'translational'
I5
tp1833
a(S'conventional'
I5
tp1834
a(S'figure'
I5
tp1835
a(S'refine'
I5
tp1836
a(S'feature'
I5
tp1837
asS'Hung13ijcv'
p1838
(lp1839
(S'depth'
I114
tp1840
a(S'flow'
I108
tp1841
a(S'scene'
I92
tp1842
a(S'motion'
I87
tp1843
a(S'temporal'
I69
tp1844
a(S'estimation'
I56
tp1845
a(S'frames'
I39
tp1846
a(S'disparity'
I32
tp1847
a(S'frame'
I30
tp1848
a(S'structure'
I30
tp1849
a(S'maps'
I27
tp1850
a(S'image'
I25
tp1851
a(S'robust'
I24
tp1852
a(S'profile'
I23
tp1853
a(S'optical'
I23
tp1854
a(S'consistent'
I22
tp1855
a(S'vis'
I22
tp1856
a(S'comput'
I22
tp1857
a(S'errors'
I22
tp1858
a(S'stereo'
I22
tp1859
a(S'constraints'
I22
tp1860
a(S'int'
I22
tp1861
a(S'method'
I21
tp1862
a(S'edge'
I21
tp1863
a(S'final'
I19
tp1864
a(S'error'
I18
tp1865
a(S'multiple'
I18
tp1866
a(S'pixels'
I18
tp1867
a(S'large'
I16
tp1868
a(S'initial'
I16
tp1869
a(S'based'
I16
tp1870
a(S'corresponding'
I16
tp1871
a(S'long-range'
I15
tp1872
a(S'fields'
I15
tp1873
a(S'variational'
I14
tp1874
a(S'sequences'
I14
tp1875
a(S'pixel'
I14
tp1876
a(S'map'
I13
tp1877
a(S'correspondence'
I13
tp1878
a(S'computed'
I13
tp1879
a(S'anisotropic'
I13
tp1880
a(S'edges'
I13
tp1881
a(S'occlusion'
I13
tp1882
a(S'occurrence'
I12
tp1883
a(S'video'
I12
tp1884
a(S'estimate'
I12
tp1885
a(S'defined'
I12
tp1886
a(S'vectors'
I12
tp1887
a(S'consistency'
I12
tp1888
a(S'constraint'
I12
tp1889
a(S'table'
I11
tp1890
a(S'smoothness'
I11
tp1891
a(S'set'
I11
tp1892
a(S'correspondences'
I11
tp1893
a(S'traffic'
I11
tp1894
a(S'temporally'
I11
tp1895
a(S'statistics'
I11
tp1896
a(S'compute'
I11
tp1897
a(S'binocular'
I11
tp1898
a(S'algorithm'
I11
tp1899
a(S'dynamic'
I10
tp1900
a(S'flt'
I10
tp1901
a(S'values'
I10
tp1902
a(S'data'
I10
tp1903
a(S'point'
I10
tp1904
a(S'trajectory'
I10
tp1905
a(S'eccv'
I10
tp1906
a(S'trajectories'
I10
tp1907
a(S'sequence'
I10
tp1908
a(S'time'
I10
tp1909
a(S'computer'
I9
tp1910
a(S'outliers'
I9
tp1911
a(S'profiles'
I9
tp1912
a(S'chained'
I9
tp1913
a(S'international'
I9
tp1914
a(S'sub-pixel'
I9
tp1915
a(S'bruhn'
I8
tp1916
a(S'trajectory-based'
I8
tp1917
a(S'flv'
I8
tp1918
a(S'flh'
I8
tp1919
a(S'cvpr'
I8
tp1920
a(S'interpolation'
I8
tp1921
a(S'propose'
I8
tp1922
a(S'term'
I8
tp1923
a(S'linear'
I8
tp1924
a(S'find'
I8
tp1925
a(S'joint'
I8
tp1926
a(S'consecutive'
I8
tp1927
a(S'wedel'
I8
tp1928
a(S'reliable'
I8
tp1929
a(S'regression'
I8
tp1930
a(S'occasional'
I8
tp1931
a(S'methods'
I8
tp1932
a(S'noise'
I8
tp1933
a(S'frh'
I8
tp1934
a(S'variation'
I8
tp1935
a(S'bilateral'
I8
tp1936
a(S'global'
I7
tp1937
a(S'computation'
I7
tp1938
a(S'vector'
I7
tp1939
asS'Hadfield14bmvc'
p1940
(lp1941
(S'motion'
I75
tp1942
a(S'estimation'
I48
tp1943
a(S'flow'
I46
tp1944
a(S'scene'
I38
tp1945
a(S'cost'
I36
tp1946
a(S'optical'
I25
tp1947
a(S'metric'
I25
tp1948
a(S'icfs'
I23
tp1949
a(S'metrics'
I22
tp1950
a(S'functions'
I21
tp1951
a(S'intelligent'
I19
tp1952
a(S'constancy'
I19
tp1953
a(S'based'
I18
tp1954
a(S'local'
I17
tp1955
a(S'fdi'
I17
tp1956
a(S'figure'
I16
tp1957
a(S'response'
I15
tp1958
a(S'brightness'
I15
tp1959
a(S'features'
I15
tp1960
a(S'supporting'
I14
tp1961
a(S'error'
I14
tp1962
a(S'machine'
I13
tp1963
a(S'motions'
I13
tp1964
a(S'pixel'
I13
tp1965
a(S'true'
I13
tp1966
a(S'computer'
I12
tp1967
a(S'techniques'
I12
tp1968
a(S'analysis'
I12
tp1969
a(S'ieee'
I11
tp1970
a(S'performance'
I11
tp1971
a(S'erroneous'
I11
tp1972
a(S'learning'
I11
tp1973
a(S'responses'
I11
tp1974
a(S'fpix'
I11
tp1975
a(S'image'
I11
tp1976
a(S'nonlinear'
I10
tp1977
a(S'international'
I10
tp1978
a(S'provide'
I10
tp1979
a(S'contextual'
I10
tp1980
a(S'gradient'
I10
tp1981
a(S'pattern'
I10
tp1982
a(S'ground'
I10
tp1983
a(S'truth'
I9
tp1984
a(S'assumption'
I9
tp1985
a(S'approaches'
I9
tp1986
a(S'simple'
I9
tp1987
a(S'multiview'
I8
tp1988
a(S'fvar'
I8
tp1989
a(S'stereo'
I8
tp1990
a(S'robust'
I8
tp1991
a(S'note'
I8
tp1992
a(S'vision'
I8
tp1993
a(S'input'
I8
tp1994
a(S'range'
I8
tp1995
a(S'standard'
I7
tp1996
a(S'secs'
I7
tp1997
a(S'fields'
I7
tp1998
a(S'context'
I7
tp1999
a(S'sequences'
I7
tp2000
a(S'complex'
I7
tp2001
a(S'icf'
I7
tp2002
a(S'volume'
I7
tp2003
a(S'original'
I7
tp2004
a(S'prove'
I6
tp2005
a(S'visual'
I6
tp2006
a(S'high'
I6
tp2007
a(S'work'
I6
tp2008
a(S'assumptions'
I6
tp2009
a(S'encoding'
I6
tp2010
a(S'variational'
I6
tp2011
a(S'approach'
I6
tp2012
a(S'pixels'
I6
tp2013
a(S'appearance'
I6
tp2014
a(S'ofcg'
I6
tp2015
a(S'matching'
I6
tp2016
a(S'conference'
I6
tp2017
a(S'additional'
I6
tp2018
a(S'function'
I6
tp2019
a(S'journal'
I6
tp2020
a(S'field'
I6
tp2021
a(S'richard'
I5
tp2022
a(S'values'
I5
tp2023
a(S'fpm'
I5
tp2024
a(S'schemes'
I5
tp2025
a(S'energy'
I5
tp2026
a(S'sensor'
I5
tp2027
a(S'number'
I5
tp2028
a(S'ideal'
I5
tp2029
a(S'multiple'
I5
tp2030
a(S'set'
I5
tp2031
a(S'employed'
I5
tp2032
a(S'applied'
I5
tp2033
a(S'pdf'
I5
tp2034
a(S'improvement'
I5
tp2035
a(S'real'
I5
tp2036
a(S'transactions'
I5
tp2037
a(S'equivalent'
I5
tp2038
a(S'distribution'
I5
tp2039
a(S'june'
I5
tp2040
a(S'dense'
I5
tp2041
asS'Vogel15ijcv'
p2042
(lp2043
(S'flow'
I137
tp2044
a(S'scene'
I130
tp2045
a(S'motion'
I103
tp2046
a(S'moving'
I70
tp2047
a(S'stereo'
I61
tp2048
a(S'data'
I57
tp2049
a(S'model'
I55
tp2050
a(S'time'
I53
tp2051
a(S'term'
I51
tp2052
a(S'optical'
I51
tp2053
a(S'computer'
I51
tp2054
a(S'proposals'
I49
tp2055
a(S'pixel'
I49
tp2056
a(S'set'
I48
tp2057
a(S'view'
I47
tp2058
a(S'kitti'
I45
tp2059
a(S'conference'
I45
tp2060
a(S'error'
I44
tp2061
a(S'proposal'
I43
tp2062
a(S'occlusion'
I41
tp2063
a(S'pixels'
I41
tp2064
a(S'image'
I41
tp2065
a(S'segmentation'
I41
tp2066
a(S'plane'
I40
tp2067
a(S'segment'
I37
tp2068
a(S'energy'
I36
tp2069
a(S'single'
I35
tp2070
a(S'rigid'
I32
tp2071
a(S'ieee'
I32
tp2072
a(S'view-consistent'
I32
tp2073
a(S'endpoint'
I31
tp2074
a(S'optimization'
I31
tp2075
a(S'segments'
I29
tp2076
a(S'camera'
I29
tp2077
a(S'case'
I28
tp2078
a(S'vis'
I28
tp2079
a(S'comput'
I28
tp2080
a(S'frames'
I28
tp2081
a(S'geometry'
I28
tp2082
a(S'123'
I28
tp2083
a(S'estimation'
I28
tp2084
a(S'int'
I28
tp2085
a(S'reference'
I27
tp2086
a(S'views'
I27
tp2087
a(S'pattern'
I27
tp2088
a(S'regularization'
I26
tp2089
a(S'method'
I26
tp2090
a(S'vision'
I25
tp2091
a(S'local'
I25
tp2092
a(S'depth'
I24
tp2093
a(S'additional'
I24
tp2094
a(S'initial'
I23
tp2095
a(S'note'
I23
tp2096
a(S'ego-motion'
I23
tp2097
a(S'consistency'
I21
tp2098
a(S'metric'
I20
tp2099
a(S'number'
I20
tp2100
a(S'methods'
I20
tp2101
a(S'consistent'
I19
tp2102
a(S'images'
I19
tp2103
a(S'pix'
I19
tp2104
a(S'superpixel'
I19
tp2105
a(S'problem'
I18
tp2106
a(S'inference'
I17
tp2107
a(S'figure'
I17
tp2108
a(S'occluded'
I17
tp2109
a(S'evaluation'
I17
tp2110
a(S'regions'
I17
tp2111
a(S'piecewise'
I17
tp2112
a(S'multiple'
I16
tp2113
a(S'international'
I16
tp2114
a(S'estimate'
I15
tp2115
a(S'scenes'
I15
tp2116
a(S'european'
I15
tp2117
a(S'previous'
I15
tp2118
a(S'disparity'
I15
tp2119
a(S'correspondence'
I15
tp2120
a(S'penalty'
I15
tp2121
a(S'planes'
I15
tp2122
a(S'outliers'
I15
tp2123
a(S'refinement'
I14
tp2124
a(S'algorithms'
I14
tp2125
a(S'per-pixel'
I14
tp2126
a(S'approach'
I14
tp2127
a(S'left'
I14
tp2128
a(S'size'
I14
tp2129
a(S'canonical'
I14
tp2130
a(S'step'
I14
tp2131
a(S'well'
I14
tp2132
a(S'percent'
I14
tp2133
a(S'handling'
I13
tp2134
a(S'solution'
I13
tp2135
a(S'il0'
I13
tp2136
a(S'terms'
I13
tp2137
a(S'representation'
I13
tp2138
a(S'performance'
I13
tp2139
a(S'region'
I13
tp2140
a(S'constant'
I13
tp2141
a(S'planar'
I13
tp2142
a(S'reference-view'
I13
tp2143
asS'Schuchert10pami'
p2144
(lp2145
(S'brightness'
I84
tp2146
a(S'flow'
I84
tp2147
a(S'range'
I79
tp2148
a(S'model'
I53
tp2149
a(S'changes'
I49
tp2150
a(S'prefiltering'
I49
tp2151
a(S'estimation'
I49
tp2152
a(S'motion'
I48
tp2153
a(S'models'
I41
tp2154
a(S'data'
I38
tp2155
a(S'constraint'
I38
tp2156
a(S'image'
I37
tp2157
a(S'intensity'
I35
tp2158
a(S'homomorphic'
I35
tp2159
a(S'noise'
I30
tp2160
a(S'high-pass'
I29
tp2161
a(S'optical'
I26
tp2162
a(S'illumination'
I26
tp2163
a(S'ieee'
I25
tp2164
a(S'standard'
I24
tp2165
a(S'error'
I24
tp2166
a(S'taylor'
I24
tp2167
a(S'estimates'
I23
tp2168
a(S'change'
I21
tp2169
a(S'yields'
I20
tp2170
a(S'constancy'
I20
tp2171
a(S'errors'
I19
tp2172
a(S'computer'
I19
tp2173
a(S'structure'
I19
tp2174
a(S'gaussian'
I18
tp2175
a(S'gradient'
I18
tp2176
a(S'cube'
I18
tp2177
a(S'parameter'
I17
tp2178
a(S'pattern'
I17
tp2179
a(S'analysis'
I17
tp2180
a(S'temporal'
I15
tp2181
a(S'side'
I15
tp2182
a(S'pre'
I15
tp2183
a(S'deviation'
I15
tp2184
a(S'signal'
I14
tp2185
a(S'machine'
I13
tp2186
a(S'parameters'
I13
tp2187
a(S'int'
I13
tp2188
a(S'growth'
I13
tp2189
a(S'institute'
I12
tp2190
a(S'camera'
I12
tp2191
a(S'scene'
I12
tp2192
a(S'shot'
I12
tp2193
a(S'described'
I12
tp2194
a(S'synthetic'
I11
tp2195
a(S'vector'
I11
tp2196
a(S'estimated'
I11
tp2197
a(S'varying'
I11
tp2198
a(S'filter'
I11
tp2199
a(S'sequence'
I11
tp2200
a(S'prefilters'
I10
tp2201
a(S'total'
I10
tp2202
a(S'constraints'
I10
tp2203
a(S'schuchert'
I10
tp2204
a(S'grad'
I10
tp2205
a(S'local'
I10
tp2206
a(S'frame'
I10
tp2207
a(S'surfaces'
I10
tp2208
a(S'input'
I10
tp2209
a(S'presented'
I9
tp2210
a(S'neighborhood'
I9
tp2211
a(S'algorithms'
I9
tp2212
a(S'prefilter'
I9
tp2213
a(S'sensor'
I9
tp2214
a(S'approaches'
I9
tp2215
a(S'transactions'
I9
tp2216
a(S'stereo'
I9
tp2217
a(S'experiments'
I9
tp2218
a(S'well'
I9
tp2219
a(S'accurate'
I9
tp2220
a(S'spatial'
I9
tp2221
a(S'frames'
I9
tp2222
a(S'coordinates'
I8
tp2223
a(S'2010'
I8
tp2224
a(S'inhomogeneous'
I8
tp2225
a(S'relative'
I8
tp2226
a(S'vision'
I8
tp2227
a(S'best'
I8
tp2228
a(S'modeling'
I8
tp2229
a(S'intgrad'
I8
tp2230
a(S'physics-based'
I8
tp2231
a(S'left'
I8
tp2232
a(S'proposed'
I8
tp2233
a(S'filtering'
I8
tp2234
a(S'caused'
I7
tp2235
a(S'increasing'
I7
tp2236
a(S'plant'
I7
tp2237
a(S'september'
I7
tp2238
a(S'regions'
I7
tp2239
a(S'comparisons'
I7
tp2240
a(S'ground'
I7
tp2241
a(S'arm'
I7
tp2242
a(S'approach'
I7
tp2243
a(S'surface'
I7
tp2244
a(S'processing'
I7
tp2245
asS'Lukins05bmvc'
p2246
(lp2247
(S'colour'
I30
tp2248
a(S'flow'
I24
tp2249
a(S'depth'
I22
tp2250
a(S'channels'
I21
tp2251
a(S'error'
I18
tp2252
a(S'figure'
I14
tp2253
a(S'intensity'
I14
tp2254
a(S'data'
I12
tp2255
a(S'displacement'
I12
tp2256
a(S'magnitude'
I11
tp2257
a(S'motion'
I11
tp2258
a(S'surface'
I11
tp2259
a(S'range'
I11
tp2260
a(S'channel'
I10
tp2261
a(S'optical'
I9
tp2262
a(S'stereo'
I9
tp2263
a(S'estimation'
I9
tp2264
a(S'image'
I9
tp2265
a(S'100'
I8
tp2266
a(S'aperture'
I8
tp2267
a(S'180'
I8
tp2268
a(S'zrgb'
I8
tp2269
a(S'rgb'
I8
tp2270
a(S'additional'
I8
tp2271
a(S'zlab'
I8
tp2272
a(S'estimates'
I7
tp2273
a(S'znrgb'
I7
tp2274
a(S'aligned'
I7
tp2275
a(S'constraints'
I7
tp2276
a(S'directly'
I7
tp2277
a(S'combining'
I7
tp2278
a(S'estimate'
I7
tp2279
a(S'combined'
I7
tp2280
a(S'optical-flow'
I6
tp2281
a(S'approach'
I6
tp2282
a(S'range-flow'
I6
tp2283
a(S'work'
I6
tp2284
a(S'accuracy'
I6
tp2285
a(S'slope'
I6
tp2286
a(S'360'
I6
tp2287
a(S'adding'
I6
tp2288
a(S'addition'
I6
tp2289
a(S'case'
I6
tp2290
a(S'capture'
I6
tp2291
a(S'270'
I6
tp2292
a(S'noise'
I6
tp2293
a(S'fcor'
I5
tp2294
a(S'squares'
I5
tp2295
a(S'angular'
I5
tp2296
a(S'multiple'
I5
tp2297
a(S'techniques'
I5
tp2298
a(S'raw'
I5
tp2299
a(S'robust'
I5
tp2300
a(S'synthetic'
I4
tp2301
a(S'applied'
I4
tp2302
a(S'weighting'
I4
tp2303
a(S'nrgb'
I4
tp2304
a(S'lab'
I4
tp2305
a(S'frames'
I4
tp2306
a(S'neighbourhood'
I4
tp2307
a(S'space'
I4
tp2308
a(S'sensor'
I4
tp2309
a(S'benefits'
I4
tp2310
a(S'scene'
I4
tp2311
a(S'translation'
I4
tp2312
a(S'local'
I4
tp2313
a(S'pattern'
I4
tp2314
a(S'simply'
I4
tp2315
a(S'fest'
I4
tp2316
a(S'input'
I4
tp2317
a(S'dense'
I4
tp2318
a(S'splaid'
I4
tp2319
a(S'dataset'
I4
tp2320
a(S'original'
I4
tp2321
a(S'computation'
I3
tp2322
a(S'technique'
I3
tp2323
a(S'application'
I3
tp2324
a(S'values'
I3
tp2325
a(S'standard'
I3
tp2326
a(S'provide'
I3
tp2327
a(S'derive'
I3
tp2328
a(S'deformation'
I3
tp2329
a(S'greater'
I3
tp2330
a(S'effects'
I3
tp2331
a(S'reduce'
I3
tp2332
a(S'orthographic'
I3
tp2333
a(S'velocity'
I3
tp2334
a(S'based'
I3
tp2335
a(S'computed'
I3
tp2336
a(S'observed'
I3
tp2337
a(S'incorporating'
I3
tp2338
a(S'invariant'
I3
tp2339
a(S'improve'
I3
tp2340
a(S'contribution'
I3
tp2341
a(S'basis'
I3
tp2342
a(S'pixel'
I3
tp2343
a(S'density'
I3
tp2344
a(S'improvement'
I3
tp2345
a(S'real'
I3
tp2346
a(S'lead'
I3
tp2347
asS'Franke05dagm'
p2348
(lp2349
(S'stereo'
I21
tp2350
a(S'estimation'
I19
tp2351
a(S'motion'
I18
tp2352
a(S'point'
I18
tp2353
a(S'speed'
I17
tp2354
a(S'system'
I15
tp2355
a(S'figure'
I13
tp2356
a(S'moving'
I13
tp2357
a(S'measurement'
I13
tp2358
a(S'kalman'
I12
tp2359
a(S'position'
I12
tp2360
a(S'image'
I12
tp2361
a(S'initial'
I12
tp2362
a(S'velocity'
I11
tp2363
a(S'fusion'
I10
tp2364
a(S'objects'
I9
tp2365
a(S'approach'
I9
tp2366
a(S'points'
I8
tp2367
a(S'real'
I8
tp2368
a(S'depth'
I8
tp2369
a(S'filter'
I7
tp2370
a(S'filters'
I7
tp2371
a(S'based'
I7
tp2372
a(S'ego-motion'
I7
tp2373
a(S'fast'
I7
tp2374
a(S'time'
I7
tp2375
a(S'matrix'
I6
tp2376
a(S'optical'
I6
tp2377
a(S'initialized'
I6
tp2378
a(S'order'
I6
tp2379
a(S'vision'
I6
tp2380
a(S'three'
I6
tp2381
a(S'coordinate'
I6
tp2382
a(S'moves'
I6
tp2383
a(S'multi-filter'
I5
tp2384
a(S'front'
I5
tp2385
a(S'detection'
I5
tp2386
a(S'flow'
I5
tp2387
a(S'constant'
I5
tp2388
a(S'distance'
I5
tp2389
a(S'vehicles'
I5
tp2390
a(S'predicted'
I5
tp2391
a(S'observer'
I5
tp2392
a(S'result'
I5
tp2393
a(S'state'
I5
tp2394
a(S'described'
I5
tp2395
a(S'robust'
I5
tp2396
a(S'model'
I5
tp2397
a(S'tracked'
I5
tp2398
a(S'noise'
I5
tp2399
a(S'practical'
I5
tp2400
a(S'convergence'
I5
tp2401
a(S'rate'
I4
tp2402
a(S'estimated'
I4
tp2403
a(S'100'
I4
tp2404
a(S'camera'
I4
tp2405
a(S'tracking'
I4
tp2406
a(S'ieee'
I4
tp2407
a(S'standard'
I4
tp2408
a(S'nis'
I4
tp2409
a(S'considered'
I4
tp2410
a(S'frame'
I4
tp2411
a(S'relative'
I4
tp2412
a(S'improved'
I4
tp2413
a(S'conference'
I4
tp2414
a(S'filtered'
I4
tp2415
a(S'traffic'
I4
tp2416
a(S'stationary'
I4
tp2417
a(S'oncoming'
I4
tp2418
a(S'2000'
I4
tp2419
a(S'decide'
I3
tp2420
a(S'vector'
I3
tp2421
a(S'small'
I3
tp2422
a(S'three-dimensional'
I3
tp2423
a(S'pass'
I3
tp2424
a(S'segmentation'
I3
tp2425
a(S'simultaneously'
I3
tp2426
a(S'cyclist'
I3
tp2427
a(S'positive'
I3
tp2428
a(S'vehicle'
I3
tp2429
a(S'car'
I3
tp2430
a(S'intelligent'
I3
tp2431
a(S'equation'
I3
tp2432
a(S'paper'
I3
tp2433
a(S'mentioned'
I3
tp2434
a(S'detected'
I3
tp2435
a(S'overcome'
I3
tp2436
a(S'crossing'
I3
tp2437
a(S'perception'
I3
tp2438
a(S'sensors'
I3
tp2439
a(S'speeds'
I3
tp2440
a(S'franke'
I3
tp2441
a(S'quality'
I3
tp2442
a(S'white'
I3
tp2443
a(S'accuracy'
I3
tp2444
a(S'multiple'
I3
tp2445
a(S'track'
I3
tp2446
a(S'reach'
I3
tp2447
a(S'measured'
I3
tp2448
a(S'international'
I3
tp2449
asS'Zhang01cvpr'
p2450
(lp2451
(S'flow'
I63
tp2452
a(S'disparity'
I60
tp2453
a(S'image'
I58
tp2454
a(S'motion'
I44
tp2455
a(S'scene'
I41
tp2456
a(S'stereo'
I38
tp2457
a(S'optical'
I36
tp2458
a(S'matching'
I33
tp2459
a(S'algorithm'
I33
tp2460
a(S'constraints'
I32
tp2461
a(S'segment'
I26
tp2462
a(S'point'
I25
tp2463
a(S'initial'
I25
tp2464
a(S'confidence'
I24
tp2465
a(S'map'
I24
tp2466
a(S'reference'
I22
tp2467
a(S'valid'
I22
tp2468
a(S'camera'
I21
tp2469
a(S'rule'
I21
tp2470
a(S'formulation'
I18
tp2471
a(S'structure'
I18
tp2472
a(S'multiview'
I15
tp2473
a(S'energy'
I15
tp2474
a(S'occluded'
I15
tp2475
a(S'smoothness'
I15
tp2476
a(S'depth'
I15
tp2477
a(S'segments'
I14
tp2478
a(S'set'
I14
tp2479
a(S'applied'
I14
tp2480
a(S'algorithms'
I13
tp2481
a(S'defined'
I13
tp2482
a(S'hard'
I12
tp2483
a(S'measurement'
I12
tp2484
a(S'estimation'
I12
tp2485
a(S'function'
I12
tp2486
a(S'compute'
I12
tp2487
a(S'views'
I11
tp2488
a(S'cameras'
I11
tp2489
a(S'occlusion'
I11
tp2490
a(S'method'
I10
tp2491
a(S'segmentation'
I10
tp2492
a(S'three'
I10
tp2493
a(S'accurate'
I10
tp2494
a(S'constraint'
I10
tp2495
a(S'large'
I9
tp2496
a(S'proposed'
I9
tp2497
a(S'dense'
I9
tp2498
a(S'figure'
I8
tp2499
a(S'correlation'
I8
tp2500
a(S'estimate'
I8
tp2501
a(S'points'
I8
tp2502
a(S'left'
I8
tp2503
a(S'score'
I7
tp2504
a(S'view'
I7
tp2505
a(S'frame'
I7
tp2506
a(S'sequences'
I7
tp2507
a(S'moving'
I7
tp2508
a(S'rules'
I7
tp2509
a(S'hierarchical'
I7
tp2510
a(S'small'
I6
tp2511
a(S'regions'
I6
tp2512
a(S'projected'
I6
tp2513
a(S'areas'
I6
tp2514
a(S'computed'
I6
tp2515
a(S'experimental'
I6
tp2516
a(S'corresponding'
I6
tp2517
a(S'formulations'
I6
tp2518
a(S'minimize'
I6
tp2519
a(S'combine'
I6
tp2520
a(S'invalid'
I6
tp2521
a(S'equals'
I5
tp2522
a(S'based'
I5
tp2523
a(S'work'
I5
tp2524
a(S'temporal'
I5
tp2525
a(S'standard'
I5
tp2526
a(S'local'
I5
tp2527
a(S'reliable'
I5
tp2528
a(S'suppose'
I5
tp2529
a(S'hand'
I5
tp2530
a(S'minimization'
I5
tp2531
a(S'discussed'
I5
tp2532
a(S'maximum'
I5
tp2533
a(S'computing'
I5
tp2534
a(S'assume'
I5
tp2535
a(S'enforce'
I4
tp2536
a(S'search'
I4
tp2537
a(S'rule-based'
I4
tp2538
a(S'positive'
I4
tp2539
a(S'high'
I4
tp2540
a(S'produce'
I4
tp2541
a(S'natural'
I4
tp2542
a(S'correspondence'
I4
tp2543
a(S'adaptive'
I4
tp2544
a(S'number'
I4
tp2545
a(S'assumption'
I4
tp2546
a(S'object'
I4
tp2547
a(S'clear'
I4
tp2548
a(S'experiments'
I4
tp2549
a(S'invisible'
I4
tp2550
a(S'described'
I4
tp2551
asS'dewan-16iros'
p2552
(lp2553
(S'motion'
I64
tp2554
a(S'method'
I36
tp2555
a(S'rigid'
I29
tp2556
a(S'scene'
I26
tp2557
a(S'points'
I26
tp2558
a(S'estimate'
I25
tp2559
a(S'approach'
I21
tp2560
a(S'point'
I21
tp2561
a(S'flow'
I20
tp2562
a(S'conference'
I19
tp2563
a(S'term'
I18
tp2564
a(S'lidar'
I18
tp2565
a(S'data'
I17
tp2566
a(S'estimating'
I15
tp2567
a(S'error'
I15
tp2568
a(S'ieee'
I14
tp2569
a(S'dense'
I13
tp2570
a(S'international'
I12
tp2571
a(S'objects'
I12
tp2572
a(S'regularization'
I12
tp2573
a(S'local'
I12
tp2574
a(S'computer'
I12
tp2575
a(S'moving'
I12
tp2576
a(S'methods'
I12
tp2577
a(S'icp'
I12
tp2578
a(S'dataset'
I12
tp2579
a(S'structure'
I12
tp2580
a(S'sequences'
I11
tp2581
a(S'pointwise'
I11
tp2582
a(S'dynamic'
I10
tp2583
a(S'non-rigid'
I10
tp2584
a(S'figure'
I10
tp2585
a(S'multiple'
I10
tp2586
a(S'object'
I10
tp2587
a(S'proposed'
I10
tp2588
a(S'nodes'
I9
tp2589
a(S'case'
I9
tp2590
a(S'kitti'
I9
tp2591
a(S'problem'
I9
tp2592
a(S'scan'
I9
tp2593
a(S'energy'
I9
tp2594
a(S'vision'
I9
tp2595
a(S'robotics'
I9
tp2596
a(S'automation'
I9
tp2597
a(S'color'
I9
tp2598
a(S'sequence'
I9
tp2599
a(S'neighborhood'
I8
tp2600
a(S'assumption'
I8
tp2601
a(S'scans'
I8
tp2602
a(S'ground'
I8
tp2603
a(S'geometric'
I8
tp2604
a(S'arm'
I8
tp2605
a(S'alignment'
I8
tp2606
a(S'estimated'
I7
tp2607
a(S'static'
I7
tp2608
a(S'based'
I7
tp2609
a(S'state'
I7
tp2610
a(S'set'
I7
tp2611
a(S'estimation'
I7
tp2612
a(S'tracking'
I7
tp2613
a(S'sparse'
I7
tp2614
a(S'graph'
I6
tp2615
a(S'cases'
I6
tp2616
a(S'work'
I6
tp2617
a(S'crispness'
I6
tp2618
a(S'truth'
I6
tp2619
a(S'sensor'
I6
tp2620
a(S'translation'
I6
tp2621
a(S'bending'
I6
tp2622
a(S'factor'
I6
tp2623
a(S'kernel'
I6
tp2624
a(S'perform'
I6
tp2625
a(S'robust'
I6
tp2626
a(S'well'
I6
tp2627
a(S'rgb-d'
I6
tp2628
a(S'defined'
I6
tp2629
a(S'field'
I6
tp2630
a(S'depth'
I6
tp2631
a(S'neighbors'
I5
tp2632
a(S'represent'
I5
tp2633
a(S'concept'
I5
tp2634
a(S'calculate'
I5
tp2635
a(S'novel'
I5
tp2636
a(S'estimates'
I5
tp2637
a(S'body'
I5
tp2638
a(S'translational'
I5
tp2639
a(S'green'
I5
tp2640
a(S'motions'
I5
tp2641
a(S'represents'
I5
tp2642
a(S'odometry'
I5
tp2643
a(S'advantages'
I5
tp2644
a(S'optical'
I5
tp2645
a(S'constancy'
I5
tp2646
a(S'neighboring'
I5
tp2647
a(S'black'
I5
tp2648
a(S'correspondences'
I5
tp2649
a(S'score'
I5
tp2650
a(S'table'
I5
tp2651
a(S'outdoor'
I5
tp2652
a(S'evaluate'
I5
tp2653
asS'Wedel08eccv'
p2654
(lp2655
(S'flow'
I72
tp2656
a(S'scene'
I62
tp2657
a(S'image'
I33
tp2658
a(S'disparity'
I31
tp2659
a(S'stereo'
I29
tp2660
a(S'dense'
I27
tp2661
a(S'motion'
I24
tp2662
a(S'estimation'
I24
tp2663
a(S'optical'
I21
tp2664
a(S'velocity'
I16
tp2665
a(S'left'
I15
tp2666
a(S'point'
I15
tp2667
a(S'variational'
I14
tp2668
a(S'images'
I14
tp2669
a(S'ground'
I12
tp2670
a(S'error'
I12
tp2671
a(S'camera'
I12
tp2672
a(S'figure'
I11
tp2673
a(S'ieee'
I10
tp2674
a(S'truth'
I10
tp2675
a(S'time'
I10
tp2676
a(S'computation'
I9
tp2677
a(S'change'
I9
tp2678
a(S'cient'
I9
tp2679
a(S'sgm'
I8
tp2680
a(S'real-time'
I8
tp2681
a(S'constraints'
I8
tp2682
a(S'd0k'
I8
tp2683
a(S'accuracy'
I8
tp2684
a(S'method'
I8
tp2685
a(S'computer'
I8
tp2686
a(S'accurate'
I8
tp2687
a(S'algorithm'
I8
tp2688
a(S'estimated'
I7
tp2689
a(S'iteration'
I7
tp2690
a(S'moving'
I7
tp2691
a(S'colour'
I7
tp2692
a(S'sparse'
I7
tp2693
a(S'presented'
I6
tp2694
a(S'tra'
I6
tp2695
a(S'div'
I6
tp2696
a(S'estimates'
I6
tp2697
a(S'framework'
I6
tp2698
a(S'energy'
I6
tp2699
a(S'based'
I6
tp2700
a(S'joint'
I6
tp2701
a(S'wedel'
I6
tp2702
a(S'technique'
I5
tp2703
a(S'consistent'
I5
tp2704
a(S'second'
I5
tp2705
a(S'work'
I5
tp2706
a(S'term'
I5
tp2707
a(S'denotes'
I5
tp2708
a(S'achieve'
I5
tp2709
a(S'areas'
I5
tp2710
a(S'fixed'
I5
tp2711
a(S'vision'
I5
tp2712
a(S'computed'
I5
tp2713
a(S'sphere'
I5
tp2714
a(S'conference'
I5
tp2715
a(S'real'
I5
tp2716
a(S'parts'
I5
tp2717
a(S'robust'
I5
tp2718
a(S'well'
I5
tp2719
a(S'consistency'
I5
tp2720
a(S'sequence'
I5
tp2721
a(S'encodes'
I5
tp2722
a(S'field'
I5
tp2723
a(S'global'
I4
tp2724
a(S'vector'
I4
tp2725
a(S'three-dimensional'
I4
tp2726
a(S'equations'
I4
tp2727
a(S'vehicle'
I4
tp2728
a(S'estimating'
I4
tp2729
a(S'main'
I4
tp2730
a(S'smoothness'
I4
tp2731
a(S'dxdy'
I4
tp2732
a(S'512'
I4
tp2733
a(S'angular'
I4
tp2734
a(S'system'
I4
tp2735
a(S'distance'
I4
tp2736
a(S'parked'
I4
tp2737
a(S'iterations'
I4
tp2738
a(S'direction'
I4
tp2739
a(S'dierent'
I4
tp2740
a(S'running'
I4
tp2741
a(S'position'
I4
tp2742
a(S'occluded'
I4
tp2743
a(S'table'
I4
tp2744
a(S'computational'
I4
tp2745
a(S'function'
I4
tp2746
a(S'huguet'
I4
tp2747
a(S'optimisation'
I4
tp2748
a(S'calculating'
I4
tp2749
a(S'vehicles'
I4
tp2750
a(S'expressions'
I3
tp2751
a(S'synthetic'
I3
tp2752
a(S'evaluation'
I3
tp2753
a(S'smaller'
I3
tp2754
a(S'horn'
I3
tp2755
asS'Basha13ijcv'
p2756
(lp2757
(S'flow'
I86
tp2758
a(S'scene'
I82
tp2759
a(S'image'
I41
tp2760
a(S'motion'
I39
tp2761
a(S'optical'
I39
tp2762
a(S'time'
I39
tp2763
a(S'computed'
I36
tp2764
a(S'reference'
I35
tp2765
a(S'method'
I34
tp2766
a(S'depth'
I34
tp2767
a(S'error'
I30
tp2768
a(S'disparity'
I30
tp2769
a(S'stereo'
I26
tp2770
a(S'point'
I26
tp2771
a(S'projection'
I25
tp2772
a(S'pixels'
I25
tp2773
a(S'occluded'
I24
tp2774
a(S'iit'
I23
tp2775
a(S'camera'
I22
tp2776
a(S'structure'
I22
tp2777
a(S'equations'
I21
tp2778
a(S'views'
I21
tp2779
a(S'errors'
I21
tp2780
a(S'data'
I20
tp2781
a(S'multi-view'
I20
tp2782
a(S'vision'
I19
tp2783
a(S'devernay'
I18
tp2784
a(S'unknowns'
I17
tp2785
a(S'respect'
I17
tp2786
a(S'huguet'
I17
tp2787
a(S'vis'
I16
tp2788
a(S'cameras'
I16
tp2789
a(S'directly'
I16
tp2790
a(S'variational'
I16
tp2791
a(S'comput'
I16
tp2792
a(S'three'
I16
tp2793
a(S'int'
I16
tp2794
a(S'functional'
I16
tp2795
a(S'smoothness'
I15
tp2796
a(S'assumption'
I15
tp2797
a(S'view'
I15
tp2798
a(S'constancy'
I14
tp2799
a(S'set'
I14
tp2800
a(S'derivatives'
I13
tp2801
a(S'rms'
I13
tp2802
a(S'ground'
I13
tp2803
a(S'surface'
I13
tp2804
a(S'images'
I13
tp2805
a(S'algorithm'
I13
tp2806
a(S'nonlinear'
I12
tp2807
a(S'appendix'
I12
tp2808
a(S'order'
I12
tp2809
a(S'term'
I12
tp2810
a(S'brightness'
I12
tp2811
a(S'approach'
I12
tp2812
a(S'wedel'
I12
tp2813
a(S'corresponding'
I12
tp2814
a(S'occlusion'
I12
tp2815
a(S'additional'
I12
tp2816
a(S'regions'
I11
tp2817
a(S'energy'
I11
tp2818
a(S'system'
I11
tp2819
a(S'multiple'
I11
tp2820
a(S'fixed'
I11
tp2821
a(S'pixel'
I11
tp2822
a(S'proposed'
I11
tp2823
a(S'shape'
I11
tp2824
a(S'solution'
I10
tp2825
a(S'large'
I10
tp2826
a(S'truth'
I10
tp2827
a(S'computer'
I10
tp2828
a(S'parametrization'
I10
tp2829
a(S'warped'
I10
tp2830
a(S'dense'
I10
tp2831
a(S'simultaneously'
I9
tp2832
a(S'maps'
I9
tp2833
a(S'map'
I9
tp2834
a(S'framework'
I9
tp2835
a(S'parameters'
I9
tp2836
a(S'rotating'
I9
tp2837
a(S'methods'
I9
tp2838
a(S'function'
I9
tp2839
a(S'euler-lagrange'
I9
tp2840
a(S'computing'
I9
tp2841
a(S'field'
I9
tp2842
a(S'deviation'
I9
tp2843
a(S'representation'
I8
tp2844
a(S'ieee'
I8
tp2845
a(S'evaluation'
I8
tp2846
a(S'points'
I8
tp2847
a(S'sphere'
I8
tp2848
a(S'pyramid'
I8
tp2849
a(S'note'
I8
tp2850
a(S'discontinuities'
I8
tp2851
a(S'functions'
I8
tp2852
a(S'global'
I7
tp2853
a(S'desired'
I7
tp2854
a(S'associated'
I7
tp2855
a(S'values'
I7
tp2856
a(S'assumptions'
I7
tp2857
asS'Ferstl14bmvc'
p2858
(lp2859
(S'flow'
I68
tp2860
a(S'depth'
I53
tp2861
a(S'scene'
I51
tp2862
a(S'data'
I27
tp2863
a(S'intensity'
I26
tp2864
a(S'dense'
I23
tp2865
a(S'image'
I23
tp2866
a(S'method'
I21
tp2867
a(S'variational'
I21
tp2868
a(S'point'
I21
tp2869
a(S'estimation'
I20
tp2870
a(S'order'
I18
tp2871
a(S'motion'
I18
tp2872
a(S'calculated'
I14
tp2873
a(S'evaluation'
I14
tp2874
a(S'methods'
I14
tp2875
a(S'camera'
I13
tp2876
a(S'regularization'
I13
tp2877
a(S'term'
I13
tp2878
a(S'optimization'
I13
tp2879
a(S'based'
I12
tp2880
a(S'terms'
I12
tp2881
a(S'anisotropic'
I12
tp2882
a(S'model'
I12
tp2883
a(S'second'
I11
tp2884
a(S'stereo'
I11
tp2885
a(S'census'
I10
tp2886
a(S'cp-census'
I9
tp2887
a(S'patchwise'
I9
tp2888
a(S'error'
I9
tp2889
a(S'closest'
I9
tp2890
a(S'non-rigid'
I8
tp2891
a(S'constraints'
I8
tp2892
a(S'space'
I8
tp2893
a(S'estimate'
I8
tp2894
a(S'directly'
I8
tp2895
a(S'local'
I8
tp2896
a(S'tensor'
I8
tp2897
a(S'higher'
I8
tp2898
a(S'proposed'
I8
tp2899
a(S'input'
I8
tp2900
a(S'low'
I8
tp2901
a(S'problem'
I8
tp2902
a(S'ternary'
I8
tp2903
a(S'calculate'
I7
tp2904
a(S'illumination'
I7
tp2905
a(S'total'
I7
tp2906
a(S'pure'
I7
tp2907
a(S'cek'
I7
tp2908
a(S'transform'
I7
tp2909
a(S'optical'
I7
tp2910
a(S'object'
I7
tp2911
a(S'movements'
I7
tp2912
a(S'images'
I7
tp2913
a(S'noise'
I7
tp2914
a(S'compared'
I7
tp2915
a(S'field'
I7
tp2916
a(S'pixelwise'
I7
tp2917
a(S'novel'
I6
tp2918
a(S'movement'
I6
tp2919
a(S'projection'
I6
tp2920
a(S'derivatives'
I6
tp2921
a(S'work'
I6
tp2922
a(S'approaches'
I6
tp2923
a(S'diffusion'
I6
tp2924
a(S'acquisition'
I6
tp2925
a(S'best'
I6
tp2926
a(S'combined'
I6
tp2927
a(S'direction'
I6
tp2928
a(S'real'
I6
tp2929
a(S'convex'
I6
tp2930
a(S'matching'
I6
tp2931
a(S'variation'
I6
tp2932
a(S'smooth'
I6
tp2933
a(S'sota'
I6
tp2934
a(S'synthetic'
I5
tp2935
a(S'pmd'
I5
tp2936
a(S'level'
I5
tp2937
a(S'search'
I5
tp2938
a(S'fidelity'
I5
tp2939
a(S'propose'
I5
tp2940
a(S'energy'
I5
tp2941
a(S'gradient'
I5
tp2942
a(S'multi-view'
I5
tp2943
a(S'generalized'
I5
tp2944
a(S'traditional'
I5
tp2945
a(S'thomas'
I5
tp2946
a(S'acquired'
I5
tp2947
a(S'invariant'
I5
tp2948
a(S'approach'
I5
tp2949
a(S'robust'
I5
tp2950
a(S'well'
I5
tp2951
a(S'quantitative'
I5
tp2952
a(S'rgb-d'
I5
tp2953
a(S'primal-dual'
I5
tp2954
a(S'measurements'
I5
tp2955
a(S'rotations'
I5
tp2956
a(S'defined'
I5
tp2957
a(S'middlebury'
I5
tp2958
a(S'structure'
I5
tp2959
asS'Pons03iccv'
p2960
(lp2961
(S'flow'
I30
tp2962
a(S'computer'
I28
tp2963
a(S'image'
I27
tp2964
a(S'scene'
I26
tp2965
a(S'ieee'
I22
tp2966
a(S'local'
I21
tp2967
a(S'global'
I19
tp2968
a(S'stereo'
I19
tp2969
a(S'criteria'
I18
tp2970
a(S'statistical'
I18
tp2971
a(S'surface'
I18
tp2972
a(S'international'
I16
tp2973
a(S'images'
I16
tp2974
a(S'proceedings'
I15
tp2975
a(S'estimation'
I15
tp2976
a(S'correlation'
I14
tp2977
a(S'mutual'
I14
tp2978
a(S'motion'
I13
tp2979
a(S'conference'
I13
tp2980
a(S'gradient'
I12
tp2981
a(S'problem'
I12
tp2982
a(S'similarity'
I11
tp2983
a(S'figure'
I11
tp2984
a(S'variational'
I11
tp2985
a(S'vision'
I11
tp2986
a(S'backprojected'
I11
tp2987
a(S'optical'
I10
tp2988
a(S'cross'
I10
tp2989
a(S'matching'
I10
tp2990
a(S'depth'
I9
tp2991
a(S'camera'
I8
tp2992
a(S'order'
I8
tp2993
a(S'probability'
I8
tp2994
a(S'joint'
I8
tp2995
a(S'input'
I8
tp2996
a(S'dense'
I8
tp2997
a(S'measures'
I8
tp2998
a(S'minimization'
I8
tp2999
a(S'function'
I8
tp3000
a(S'time'
I8
tp3001
a(S'method'
I7
tp3002
a(S'equation'
I7
tp3003
a(S'note'
I7
tp3004
a(S'video'
I6
tp3005
a(S'spatio-temporal'
I6
tp3006
a(S'smoothness'
I6
tp3007
a(S'multiple'
I6
tp3008
a(S'pattern'
I6
tp3009
a(S'intensity'
I6
tp3010
a(S'instant'
I6
tp3011
a(S'ninth'
I6
tp3012
a(S'shape'
I6
tp3013
a(S'journal'
I6
tp3014
a(S'volume'
I6
tp3015
a(S'defined'
I6
tp3016
a(S'structure'
I6
tp3017
a(S'2003'
I6
tp3018
a(S'consider'
I5
tp3019
a(S'vector'
I5
tp3020
a(S'three-dimensional'
I5
tp3021
a(S'estimated'
I5
tp3022
a(S'window'
I5
tp3023
a(S'framework'
I5
tp3024
a(S'gaussian'
I5
tp3025
a(S'pair'
I5
tp3026
a(S'computed'
I5
tp3027
a(S'techniques'
I5
tp3028
a(S'surfaces'
I5
tp3029
a(S'approach'
I5
tp3030
a(S'methods'
I5
tp3031
a(S'functional'
I5
tp3032
a(S'initial'
I5
tp3033
a(S'field'
I5
tp3034
a(S'suitable'
I4
tp3035
a(S'assumptions'
I4
tp3036
a(S'regularization'
I4
tp3037
a(S'recovery'
I4
tp3038
a(S'energy'
I4
tp3039
a(S'recovered'
I4
tp3040
a(S'intensities'
I4
tp3041
a(S'tikhonov'
I4
tp3042
a(S'case'
I4
tp3043
a(S'descent'
I4
tp3044
a(S'reconstructed'
I4
tp3045
a(S'solve'
I4
tp3046
a(S'backprojecting'
I4
tp3047
a(S'classical'
I4
tp3048
a(S'sequence'
I4
tp3049
a(S'multi-resolution'
I4
tp3050
a(S'june'
I4
tp3051
a(S'stereovision'
I4
tp3052
a(S'enforce'
I3
tp3053
a(S'approximation'
I3
tp3054
a(S'spectral'
I3
tp3055
a(S'changes'
I3
tp3056
a(S'derivatives'
I3
tp3057
a(S'high'
I3
tp3058
a(S'plane'
I3
tp3059
a(S'ambiguous'
I3
tp3060
a(S'convolution'
I3
tp3061
asS'Wedel11ijcv'
p3062
(lp3063
(S'flow'
I173
tp3064
a(S'scene'
I136
tp3065
a(S'disparity'
I94
tp3066
a(S'motion'
I78
tp3067
a(S'image'
I63
tp3068
a(S'stereo'
I50
tp3069
a(S'estimation'
I46
tp3070
a(S'algorithm'
I43
tp3071
a(S'optical'
I41
tp3072
a(S'computer'
I39
tp3073
a(S'energy'
I37
tp3074
a(S'uncertainty'
I36
tp3075
a(S'error'
I32
tp3076
a(S'images'
I32
tp3077
a(S'ieee'
I29
tp3078
a(S'left'
I27
tp3079
a(S'vision'
I26
tp3080
a(S'moving'
I26
tp3081
a(S'segmentation'
I25
tp3082
a(S'variational'
I23
tp3083
a(S'comput'
I23
tp3084
a(S'vis'
I23
tp3085
a(S'int'
I23
tp3086
a(S'residual'
I22
tp3087
a(S'camera'
I22
tp3088
a(S'method'
I20
tp3089
a(S'figure'
I19
tp3090
a(S'dense'
I19
tp3091
a(S'estimate'
I18
tp3092
a(S'time'
I18
tp3093
a(S'approach'
I17
tp3094
a(S'point'
I17
tp3095
a(S'erf'
I16
tp3096
a(S'intensity'
I16
tp3097
a(S'speed'
I15
tp3098
a(S'edf'
I14
tp3099
a(S'errors'
I14
tp3100
a(S'ground'
I14
tp3101
a(S'pattern'
I14
tp3102
a(S'pixel'
I14
tp3103
a(S'devernay'
I14
tp3104
a(S'computation'
I13
tp3105
a(S'estimated'
I13
tp3106
a(S'equations'
I13
tp3107
a(S'data'
I13
tp3108
a(S'likelihood'
I13
tp3109
a(S'points'
I13
tp3110
a(S'colour'
I13
tp3111
a(S'elf'
I13
tp3112
a(S'estimates'
I12
tp3113
a(S'change'
I12
tp3114
a(S'based'
I12
tp3115
a(S'proposed'
I12
tp3116
a(S'input'
I12
tp3117
a(S'function'
I12
tp3118
a(S'presented'
I11
tp3119
a(S'objects'
I11
tp3120
a(S'example'
I11
tp3121
a(S'measure'
I11
tp3122
a(S'measures'
I11
tp3123
a(S'local'
I11
tp3124
a(S'variance'
I11
tp3125
a(S'accurate'
I11
tp3126
a(S'sparse'
I11
tp3127
a(S'huguet'
I11
tp3128
a(S'derived'
I10
tp3129
a(S'evaluation'
I10
tp3130
a(S'computed'
I10
tp3131
a(S'close'
I10
tp3132
a(S'los'
I10
tp3133
a(S'sgm'
I10
tp3134
a(S'methods'
I10
tp3135
a(S'recognition'
I10
tp3136
a(S'compute'
I10
tp3137
a(S'truth'
I10
tp3138
a(S'real-world'
I10
tp3139
a(S'original'
I10
tp3140
a(S'difference'
I9
tp3141
a(S'three-dimensional'
I9
tp3142
a(S'vehicle'
I9
tp3143
a(S'real-time'
I9
tp3144
a(S'standard'
I9
tp3145
a(S'distance'
I9
tp3146
a(S'cost'
I9
tp3147
a(S'metrics'
I9
tp3148
a(S'frame'
I9
tp3149
a(S'pixels'
I9
tp3150
a(S'running'
I9
tp3151
a(S'position'
I9
tp3152
a(S'traffic'
I9
tp3153
a(S'sequence'
I9
tp3154
a(S'table'
I9
tp3155
a(S'provided'
I9
tp3156
a(S'field'
I9
tp3157
a(S'sub-pixel'
I9
tp3158
a(S'depth'
I9
tp3159
a(S'vector'
I8
tp3160
a(S'provide'
I8
tp3161
a(S'constraints'
I8
tp3162
a(S'algorithms'
I8
tp3163
asS'Vedula05pami'
p3164
(lp3165
(S'scene'
I102
tp3166
a(S'flow'
I93
tp3167
a(S'optical'
I52
tp3168
a(S'motion'
I35
tp3169
a(S'image'
I34
tp3170
a(S'voxel'
I29
tp3171
a(S'surface'
I29
tp3172
a(S'point'
I22
tp3173
a(S'camera'
I18
tp3174
a(S'ieee'
I18
tp3175
a(S'three-dimensional'
I16
tp3176
a(S'time'
I16
tp3177
a(S'multiple'
I15
tp3178
a(S'computed'
I15
tp3179
a(S'algorithm'
I15
tp3180
a(S'model'
I14
tp3181
a(S'nonrigid'
I13
tp3182
a(S'regularization'
I13
tp3183
a(S'cameras'
I13
tp3184
a(S'computer'
I13
tp3185
a(S'compute'
I13
tp3186
a(S'machine'
I12
tp3187
a(S'pattern'
I12
tp3188
a(S'normal'
I12
tp3189
a(S'structure'
I12
tp3190
a(S'algorithms'
I11
tp3191
a(S'single'
I11
tp3192
a(S'analysis'
I11
tp3193
a(S'three'
I10
tp3194
a(S'shape'
I9
tp3195
a(S'change'
I8
tp3196
a(S'projection'
I8
tp3197
a(S'iit'
I8
tp3198
a(S'radiance'
I8
tp3199
a(S'computing'
I8
tp3200
a(S'lambertian'
I8
tp3201
a(S'estimate'
I7
tp3202
a(S'geometry'
I7
tp3203
a(S'dui'
I7
tp3204
a(S'2005'
I7
tp3205
a(S'flows'
I7
tp3206
a(S'images'
I7
tp3207
a(S'dense'
I7
tp3208
a(S'properties'
I7
tp3209
a(S'form'
I7
tp3210
a(S'illumination'
I6
tp3211
a(S'equation'
I6
tp3212
a(S'plane'
I6
tp3213
a(S'directly'
I6
tp3214
a(S'depends'
I6
tp3215
a(S'measure'
I6
tp3216
a(S'transactions'
I6
tp3217
a(S'coloring'
I6
tp3218
a(S'dancer'
I6
tp3219
a(S'perform'
I6
tp3220
a(S'march'
I6
tp3221
a(S'sequence'
I6
tp3222
a(S'instantaneous'
I6
tp3223
a(S'constraint'
I6
tp3224
a(S'field'
I6
tp3225
a(S'consider'
I5
tp3226
a(S'video'
I5
tp3227
a(S'reconstruction'
I5
tp3228
a(S'equations'
I5
tp3229
a(S'fundamental'
I5
tp3230
a(S'number'
I5
tp3231
a(S'note'
I5
tp3232
a(S'jacobian'
I5
tp3233
a(S'stereo'
I5
tp3234
a(S'fixed'
I5
tp3235
a(S'suppose'
I5
tp3236
a(S'riit'
I5
tp3237
a(S'smoothing'
I5
tp3238
a(S'function'
I5
tp3239
a(S'constant'
I5
tp3240
a(S'assume'
I5
tp3241
a(S'dynamic'
I4
tp3242
a(S'vector'
I4
tp3243
a(S'monocular'
I4
tp3244
a(S'second'
I4
tp3245
a(S'rate'
I4
tp3246
a(S'voxels'
I4
tp3247
a(S'holds'
I4
tp3248
a(S'brightness'
I4
tp3249
a(S'matrix'
I4
tp3250
a(S'gradient'
I4
tp3251
a(S'assumption'
I4
tp3252
a(S'recovered'
I4
tp3253
a(S'generalization'
I4
tp3254
a(S'albedo'
I4
tp3255
a(S'constancy'
I4
tp3256
a(S'points'
I4
tp3257
a(S'vision'
I4
tp3258
a(S'view'
I4
tp3259
a(S'set'
I4
tp3260
a(S'pixels'
I4
tp3261
a(S'estimation'
I4
tp3262
a(S'robotics'
I4
tp3263
a(S'left'
I4
tp3264
a(S'captured'
I4
tp3265
asS'Srinivasan15iccv'
p3266
(lp3267
(S'flow'
I83
tp3268
a(S'scene'
I81
tp3269
a(S'light-field'
I68
tp3270
a(S'oriented'
I45
tp3271
a(S'optical'
I39
tp3272
a(S'windows'
I37
tp3273
a(S'spatial'
I37
tp3274
a(S'pixel'
I30
tp3275
a(S'depth'
I30
tp3276
a(S'algorithm'
I28
tp3277
a(S'image'
I24
tp3278
a(S'angular'
I22
tp3279
a(S'estimation'
I19
tp3280
a(S'images'
I19
tp3281
a(S'figure'
I18
tp3282
a(S'color'
I18
tp3283
a(S'point'
I16
tp3284
a(S'window'
I15
tp3285
a(S'bilateral'
I15
tp3286
a(S'rmse'
I13
tp3287
a(S'compare'
I12
tp3288
a(S'accurate'
I12
tp3289
a(S'values'
I11
tp3290
a(S'motion'
I11
tp3291
a(S'compute'
I11
tp3292
a(S'segmentation'
I10
tp3293
a(S'camera'
I10
tp3294
a(S'scenes'
I10
tp3295
a(S'synthetic'
I9
tp3296
a(S'algorithms'
I9
tp3297
a(S'better'
I9
tp3298
a(S'method'
I8
tp3299
a(S'optimal'
I8
tp3300
a(S'lightfield'
I8
tp3301
a(S'visualized'
I8
tp3302
a(S'filtering'
I8
tp3303
a(S'regularization'
I7
tp3304
a(S'rays'
I7
tp3305
a(S'applications'
I7
tp3306
a(S'cie-lab'
I7
tp3307
a(S'shear'
I7
tp3308
a(S'estimate'
I7
tp3309
a(S'points'
I7
tp3310
a(S'local'
I7
tp3311
a(S'computer'
I7
tp3312
a(S'table'
I7
tp3313
a(S'srsf'
I7
tp3314
a(S'field'
I7
tp3315
a(S'confidence'
I7
tp3316
a(S'rgbd'
I6
tp3317
a(S'pinhole'
I6
tp3318
a(S'conventional'
I6
tp3319
a(S'work'
I6
tp3320
a(S'example'
I6
tp3321
a(S'data'
I6
tp3322
a(S'light'
I6
tp3323
a(S'term'
I6
tp3324
a(S'energy'
I6
tp3325
a(S'traditional'
I6
tp3326
a(S'variance'
I6
tp3327
a(S'edges'
I6
tp3328
a(S'focal'
I6
tp3329
a(S'comparisons'
I6
tp3330
a(S'matching'
I6
tp3331
a(S'defined'
I6
tp3332
a(S'dense'
I6
tp3333
a(S'superpixel'
I6
tp3334
a(S'search'
I5
tp3335
a(S'smoothness'
I5
tp3336
a(S'brightness'
I5
tp3337
a(S'translation'
I5
tp3338
a(S'stereo'
I5
tp3339
a(S'vision'
I5
tp3340
a(S'consistency'
I5
tp3341
a(S'rgb'
I5
tp3342
a(S'corresponding'
I5
tp3343
a(S'pyramid'
I5
tp3344
a(S'operator'
I5
tp3345
a(S'mdp-flow2'
I5
tp3346
a(S'gaussian'
I5
tp3347
a(S'demonstrate'
I5
tp3348
a(S'general'
I5
tp3349
a(S'single'
I5
tp3350
a(S'formulation'
I5
tp3351
a(S'moves'
I5
tp3352
a(S'difference'
I4
tp3353
a(S'flatland'
I4
tp3354
a(S'distribution'
I4
tp3355
a(S'account'
I4
tp3356
a(S'slic'
I4
tp3357
a(S'provide'
I4
tp3358
a(S'effective'
I4
tp3359
a(S'shearing'
I4
tp3360
a(S'space'
I4
tp3361
a(S'standard'
I4
tp3362
a(S'benefits'
I4
tp3363
a(S'filter'
I4
tp3364
a(S'top'
I4
tp3365
a(S'depths'
I4
tp3366
a(S'state-of-the-art'
I4
tp3367
asS'Cech11cvpr'
p3368
(lp3369
(S'flow'
I58
tp3370
a(S'algorithm'
I51
tp3371
a(S'optical'
I43
tp3372
a(S'disparity'
I42
tp3373
a(S'stereo'
I39
tp3374
a(S'scene'
I38
tp3375
a(S'motion'
I32
tp3376
a(S'seeds'
I30
tp3377
a(S'gcsfs'
I26
tp3378
a(S'growing'
I26
tp3379
a(S'seed'
I21
tp3380
a(S'proposed'
I20
tp3381
a(S'maps'
I18
tp3382
a(S'small'
I15
tp3383
a(S'pixels'
I15
tp3384
a(S'map'
I14
tp3385
a(S'huguet-2007'
I14
tp3386
a(S'correspondence'
I13
tp3387
a(S'matching'
I12
tp3388
a(S'image'
I12
tp3389
a(S'variational'
I11
tp3390
a(S'correspondences'
I11
tp3391
a(S'methods'
I11
tp3392
a(S'images'
I11
tp3393
a(S'time'
I11
tp3394
a(S'correlation'
I10
tp3395
a(S'spatiotemporal'
I10
tp3396
a(S'well'
I10
tp3397
a(S'output'
I10
tp3398
a(S'noise'
I10
tp3399
a(S'step'
I10
tp3400
a(S'figure'
I9
tp3401
a(S'mismatches'
I9
tp3402
a(S'correct'
I9
tp3403
a(S'local'
I9
tp3404
a(S'set'
I9
tp3405
a(S'frame'
I9
tp3406
a(S'brox-2010'
I9
tp3407
a(S'large'
I8
tp3408
a(S'tested'
I8
tp3409
a(S'moving'
I8
tp3410
a(S'sequence'
I8
tp3411
a(S'compared'
I8
tp3412
a(S'solution'
I7
tp3413
a(S'process'
I7
tp3414
a(S'pixel'
I7
tp3415
a(S'threshold'
I7
tp3416
a(S'boundaries'
I7
tp3417
a(S'consecutive'
I7
tp3418
a(S'estimation'
I7
tp3419
a(S'prematcher'
I7
tp3420
a(S'sizintsev-2009'
I6
tp3421
a(S'method'
I6
tp3422
a(S'algorithms'
I6
tp3423
a(S'temporal'
I6
tp3424
a(S'better'
I6
tp3425
a(S'matched'
I6
tp3426
a(S'estimate'
I6
tp3427
a(S'points'
I6
tp3428
a(S'parameters'
I6
tp3429
a(S'vertical'
I6
tp3430
a(S'fast'
I6
tp3431
a(S'estimates'
I5
tp3432
a(S'synthetic'
I5
tp3433
a(S'ratio'
I5
tp3434
a(S'level'
I5
tp3435
a(S'consistency'
I5
tp3436
a(S'average'
I5
tp3437
a(S'left'
I5
tp3438
a(S'experiments'
I5
tp3439
a(S'notice'
I5
tp3440
a(S'frame-by-frame'
I5
tp3441
a(S'eth'
I5
tp3442
a(S'accurate'
I5
tp3443
a(S'simple'
I5
tp3444
a(S'dense'
I5
tp3445
a(S'predictor'
I5
tp3446
a(S'statistics'
I5
tp3447
a(S'initial'
I5
tp3448
a(S'low'
I5
tp3449
a(S'displacement'
I5
tp3450
a(S'similarity'
I4
tp3451
a(S'camera'
I4
tp3452
a(S'epipolar'
I4
tp3453
a(S'compare'
I4
tp3454
a(S'gcf'
I4
tp3455
a(S'data'
I4
tp3456
a(S'complexity'
I4
tp3457
a(S'produces'
I4
tp3458
a(S'ground-truth'
I4
tp3459
a(S'inria'
I4
tp3460
a(S'cameras'
I4
tp3461
a(S'evaluation'
I4
tp3462
a(S'rectified'
I4
tp3463
a(S'joint'
I4
tp3464
a(S'bar'
I4
tp3465
a(S'computes'
I4
tp3466
a(S'best'
I4
tp3467
a(S'point'
I4
tp3468
a(S'evaluated'
I4
tp3469
asS'Kochanov16iros'
p3470
(lp3471
(S'semantic'
I97
tp3472
a(S'scene'
I52
tp3473
a(S'map'
I46
tp3474
a(S'stereo'
I42
tp3475
a(S'object'
I41
tp3476
a(S'mapping'
I33
tp3477
a(S'method'
I31
tp3478
a(S'segmentation'
I31
tp3479
a(S'dynamic'
I30
tp3480
a(S'voxel'
I30
tp3481
a(S'occupancy'
I30
tp3482
a(S'flow'
I28
tp3483
a(S'depth'
I22
tp3484
a(S'objects'
I20
tp3485
a(S'voxels'
I19
tp3486
a(S'belief'
I19
tp3487
a(S'approach'
I19
tp3488
a(S'motion'
I18
tp3489
a(S'discovery'
I18
tp3490
a(S'ieee'
I17
tp3491
a(S'temporally'
I17
tp3492
a(S'static'
I16
tp3493
a(S'based'
I16
tp3494
a(S'visual'
I15
tp3495
a(S'maps'
I15
tp3496
a(S'kitti'
I14
tp3497
a(S'integrated'
I14
tp3498
a(S'consistent'
I13
tp3499
a(S'label'
I13
tp3500
a(S'tracking'
I13
tp3501
a(S'image'
I13
tp3502
a(S't-1'
I13
tp3503
a(S'camera'
I12
tp3504
a(S'crf'
I12
tp3505
a(S'distribution'
I12
tp3506
a(S'model'
I12
tp3507
a(S'spatial'
I12
tp3508
a(S'odometry'
I12
tp3509
a(S'street'
I11
tp3510
a(S'semantics'
I11
tp3511
a(S'points'
I11
tp3512
a(S'frame'
I11
tp3513
a(S'scenes'
I11
tp3514
a(S'grid'
I11
tp3515
a(S'dense'
I11
tp3516
a(S'frames'
I11
tp3517
a(S'time'
I11
tp3518
a(S'random'
I10
tp3519
a(S'proposals'
I10
tp3520
a(S'set'
I10
tp3521
a(S'large-scale'
I10
tp3522
a(S'moving'
I10
tp3523
a(S'image-based'
I10
tp3524
a(S'point'
I10
tp3525
a(S'methods'
I10
tp3526
a(S'images'
I10
tp3527
a(S'measurements'
I10
tp3528
a(S'order'
I9
tp3529
a(S'propose'
I9
tp3530
a(S'number'
I9
tp3531
a(S'previous'
I9
tp3532
a(S'labelling'
I9
tp3533
a(S'pixel'
I8
tp3534
a(S'local'
I8
tp3535
a(S'pixels'
I8
tp3536
a(S'slam'
I8
tp3537
a(S'measurement'
I8
tp3538
a(S'features'
I7
tp3539
a(S'observations'
I7
tp3540
a(S'average'
I7
tp3541
a(S'ground'
I7
tp3542
a(S'consistency'
I7
tp3543
a(S'probabilistic'
I7
tp3544
a(S'individual'
I7
tp3545
a(S'global'
I6
tp3546
a(S'enforce'
I6
tp3547
a(S'cues'
I6
tp3548
a(S'current'
I6
tp3549
a(S'apply'
I6
tp3550
a(S'cloud'
I6
tp3551
a(S'forest'
I6
tp3552
a(S'temporal'
I6
tp3553
a(S'particles'
I6
tp3554
a(S'approaches'
I6
tp3555
a(S'urban'
I6
tp3556
a(S'note'
I6
tp3557
a(S'color'
I6
tp3558
a(S'bayesian'
I6
tp3559
a(S'parts'
I6
tp3560
a(S'well'
I6
tp3561
a(S'rgb-d'
I6
tp3562
a(S'evaluate'
I6
tp3563
a(S'integration'
I6
tp3564
a(S'compute'
I6
tp3565
a(S'demonstrate'
I6
tp3566
a(S'categories'
I5
tp3567
a(S'estimate'
I5
tp3568
a(S'takes'
I5
tp3569
a(S'training'
I5
tp3570
a(S'recall'
I5
tp3571
asS'Pons07ijcv'
p3572
(lp3573
(S'scene'
I58
tp3574
a(S'matching'
I48
tp3575
a(S'flow'
I42
tp3576
a(S'images'
I37
tp3577
a(S'method'
I36
tp3578
a(S'computer'
I35
tp3579
a(S'shape'
I33
tp3580
a(S'stereovision'
I33
tp3581
a(S'surface'
I32
tp3582
a(S'image'
I31
tp3583
a(S'motion'
I27
tp3584
a(S'measure'
I25
tp3585
a(S'international'
I24
tp3586
a(S'estimation'
I23
tp3587
a(S'stereo'
I23
tp3588
a(S'multi-view'
I20
tp3589
a(S'methods'
I20
tp3590
a(S'camera'
I18
tp3591
a(S'correlation'
I18
tp3592
a(S'input'
I18
tp3593
a(S'similarity'
I17
tp3594
a(S'cross'
I17
tp3595
a(S'conference'
I16
tp3596
a(S'global'
I15
tp3597
a(S'reconstruction'
I15
tp3598
a(S'term'
I15
tp3599
a(S'space'
I15
tp3600
a(S'journal'
I15
tp3601
a(S'faugeras'
I14
tp3602
a(S'keriven'
I13
tp3603
a(S'time'
I13
tp3604
a(S'jin'
I12
tp3605
a(S'energy'
I12
tp3606
a(S'mutual'
I12
tp3607
a(S'figure'
I11
tp3608
a(S'level'
I10
tp3609
a(S'cameras'
I10
tp3610
a(S'minimizing'
I10
tp3611
a(S'framework'
I10
tp3612
a(S'carving'
I10
tp3613
a(S'problem'
I10
tp3614
a(S'non-rigid'
I9
tp3615
a(S'video'
I9
tp3616
a(S'tangent'
I9
tp3617
a(S'regularization'
I9
tp3618
a(S'plane'
I9
tp3619
a(S'note'
I9
tp3620
a(S'measures'
I9
tp3621
a(S'implementation'
I9
tp3622
a(S'local'
I9
tp3623
a(S'ucke'
I9
tp3624
a(S'sequence'
I9
tp3625
a(S'compute'
I9
tp3626
a(S'computation'
I8
tp3627
a(S'neighborhood'
I8
tp3628
a(S'error'
I8
tp3629
a(S'size'
I8
tp3630
a(S'assumption'
I8
tp3631
a(S'variational'
I8
tp3632
a(S'approach'
I8
tp3633
a(S'set'
I8
tp3634
a(S'intensity'
I8
tp3635
a(S'corresponding'
I8
tp3636
a(S'non-lambertian'
I8
tp3637
a(S'optical'
I8
tp3638
a(S'algorithm'
I8
tp3639
a(S'three-dimensional'
I7
tp3640
a(S'prediction'
I7
tp3641
a(S'approximation'
I7
tp3642
a(S'spatio-temporal'
I7
tp3643
a(S'projective'
I7
tp3644
a(S'data'
I7
tp3645
a(S'lhuillier'
I7
tp3646
a(S'derivative'
I7
tp3647
a(S'voxel'
I7
tp3648
a(S'multiple'
I7
tp3649
a(S'computed'
I7
tp3650
a(S'respect'
I7
tp3651
a(S'duan'
I7
tp3652
a(S'andez'
I7
tp3653
a(S'datasets'
I7
tp3654
a(S'robustness'
I7
tp3655
a(S'visibility'
I7
tp3656
a(S'graph'
I6
tp3657
a(S'vector'
I6
tp3658
a(S'photometric'
I6
tp3659
a(S'texture'
I6
tp3660
a(S'derivatives'
I6
tp3661
a(S'curvature'
I6
tp3662
a(S'work'
I6
tp3663
a(S'complex'
I6
tp3664
a(S'correspondence'
I6
tp3665
a(S'views'
I6
tp3666
a(S'gradient'
I6
tp3667
a(S'number'
I6
tp3668
a(S'authors'
I6
tp3669
a(S'function'
I6
tp3670
a(S'windows'
I6
tp3671
a(S'points'
I6
tp3672
a(S'handle'
I6
tp3673
asS'Birkbeck11iccv'
p3674
(lp3675
(S'motion'
I62
tp3676
a(S'basis'
I58
tp3677
a(S'flow'
I55
tp3678
a(S'proxy'
I54
tp3679
a(S'surface'
I44
tp3680
a(S'scene'
I43
tp3681
a(S'temporal'
I26
tp3682
a(S'reconstruction'
I23
tp3683
a(S'moving'
I19
tp3684
a(S'image'
I19
tp3685
a(S'time'
I16
tp3686
a(S'data'
I15
tp3687
a(S'displacement'
I15
tp3688
a(S'depth'
I14
tp3689
a(S'camera'
I13
tp3690
a(S'figure'
I13
tp3691
a(S'set'
I13
tp3692
a(S'optic'
I13
tp3693
a(S'stereo'
I12
tp3694
a(S'formulation'
I12
tp3695
a(S'number'
I11
tp3696
a(S'coarse'
I11
tp3697
a(S'structure'
I11
tp3698
a(S'wijt'
I10
tp3699
a(S'variational'
I10
tp3700
a(S'dense'
I10
tp3701
a(S'functions'
I10
tp3702
a(S'constraints'
I9
tp3703
a(S'skinned'
I9
tp3704
a(S'relative'
I9
tp3705
a(S'point'
I9
tp3706
a(S'shape'
I9
tp3707
a(S'wit1'
I9
tp3708
a(S'constant'
I9
tp3709
a(S'displacements'
I8
tp3710
a(S'static'
I8
tp3711
a(S'geometry'
I8
tp3712
a(S'illustrate'
I8
tp3713
a(S'iijt'
I8
tp3714
a(S'missing'
I8
tp3715
a(S'cosine'
I8
tp3716
a(S'residual'
I7
tp3717
a(S'reconstructions'
I7
tp3718
a(S'linear'
I7
tp3719
a(S'mesh'
I7
tp3720
a(S'points'
I7
tp3721
a(S'reconstruct'
I7
tp3722
a(S'tangent'
I7
tp3723
a(S'estimation'
I7
tp3724
a(S'image-based'
I7
tp3725
a(S'input'
I7
tp3726
a(S'elements'
I7
tp3727
a(S'dynamic'
I6
tp3728
a(S'skeleton'
I6
tp3729
a(S'fewer'
I6
tp3730
a(S'views'
I6
tp3731
a(S'framework'
I6
tp3732
a(S'iit1'
I6
tp3733
a(S'multi-view'
I6
tp3734
a(S'normal'
I6
tp3735
a(S'velocity'
I6
tp3736
a(S'texture'
I6
tp3737
a(S'frame'
I6
tp3738
a(S'terms'
I6
tp3739
a(S'case'
I6
tp3740
a(S'methods'
I6
tp3741
a(S'frames'
I6
tp3742
a(S'low'
I6
tp3743
a(S'euler-lagrange'
I6
tp3744
a(S'represent'
I5
tp3745
a(S'non-rigid'
I5
tp3746
a(S'rigid'
I5
tp3747
a(S'bone'
I5
tp3748
a(S'directly'
I5
tp3749
a(S'observations'
I5
tp3750
a(S'recover'
I5
tp3751
a(S'generalizes'
I5
tp3752
a(S'cvpr'
I5
tp3753
a(S'unconstrained'
I5
tp3754
a(S'representation'
I5
tp3755
a(S'triangle'
I5
tp3756
a(S'reference'
I5
tp3757
a(S'simple'
I5
tp3758
a(S'dimensional'
I5
tp3759
a(S'trajectory'
I5
tp3760
a(S'equations'
I5
tp3761
a(S'correspondences'
I5
tp3762
a(S'previous'
I5
tp3763
a(S'single'
I5
tp3764
a(S'consider'
I4
tp3765
a(S'deforming'
I4
tp3766
a(S'advantage'
I4
tp3767
a(S'textured'
I4
tp3768
a(S'allows'
I4
tp3769
a(S'regularization'
I4
tp3770
a(S'utilize'
I4
tp3771
a(S'plane'
I4
tp3772
a(S'better'
I4
tp3773
a(S'overcome'
I4
tp3774
a(S'term'
I4
tp3775
asS'Alhaija15gcpr'
p3776
(lp3777
(S'graph'
I49
tp3778
a(S'scene'
I48
tp3779
a(S'flow'
I47
tp3780
a(S'matching'
I42
tp3781
a(S'depth'
I33
tp3782
a(S'large'
I27
tp3783
a(S'image'
I25
tp3784
a(S'description'
I24
tp3785
a(S'matches'
I24
tp3786
a(S'motion'
I21
tp3787
a(S'term'
I19
tp3788
a(S'energy'
I19
tp3789
a(S'dense'
I19
tp3790
a(S'edge'
I16
tp3791
a(S'rgb-d'
I15
tp3792
a(S'approach'
I14
tp3793
a(S'displacement'
I14
tp3794
a(S'segments'
I13
tp3795
a(S'correct'
I12
tp3796
a(S'ieee'
I12
tp3797
a(S'images'
I11
tp3798
a(S'segment'
I10
tp3799
a(S'estimation'
I10
tp3800
a(S'descriptor'
I9
tp3801
a(S'approaches'
I9
tp3802
a(S'result'
I9
tp3803
a(S'edges'
I9
tp3804
a(S'consistency'
I9
tp3805
a(S'occlusion'
I9
tp3806
a(S'sparse'
I9
tp3807
a(S'feature'
I8
tp3808
a(S'optical'
I8
tp3809
a(S'global'
I7
tp3810
a(S'tpami'
I7
tp3811
a(S'abu'
I7
tp3812
a(S'work'
I7
tp3813
a(S'gradient'
I7
tp3814
a(S'variational'
I7
tp3815
a(S'set'
I7
tp3816
a(S'appearance'
I7
tp3817
a(S'sequence'
I7
tp3818
a(S'time'
I7
tp3819
a(S'second'
I6
tp3820
a(S'method'
I6
tp3821
a(S'data'
I6
tp3822
a(S'motions'
I6
tp3823
a(S'sphereflow'
I6
tp3824
a(S'smoothness'
I6
tp3825
a(S'estimate'
I6
tp3826
a(S'torresani'
I6
tp3827
a(S'graphflow'
I6
tp3828
a(S'distance'
I6
tp3829
a(S'pixels'
I6
tp3830
a(S'point'
I6
tp3831
a(S'lower'
I6
tp3832
a(S'alhaija'
I6
tp3833
a(S'constant'
I6
tp3834
a(S'match'
I6
tp3835
a(S'sift'
I5
tp3836
a(S'app'
I5
tp3837
a(S'cases'
I5
tp3838
a(S'springer'
I5
tp3839
a(S'displacements'
I5
tp3840
a(S'pixel'
I5
tp3841
a(S'geometry'
I5
tp3842
a(S'points'
I5
tp3843
a(S'occ'
I5
tp3844
a(S'hammer'
I5
tp3845
a(S'respect'
I5
tp3846
a(S'three'
I5
tp3847
a(S'rgb'
I5
tp3848
a(S'table'
I5
tp3849
a(S'frames'
I5
tp3850
a(S'additional'
I5
tp3851
a(S'field'
I5
tp3852
a(S'structure'
I5
tp3853
a(S'centers'
I4
tp3854
a(S'objects'
I4
tp3855
a(S'textured'
I4
tp3856
a(S'represented'
I4
tp3857
a(S'vectors'
I4
tp3858
a(S'visual'
I4
tp3859
a(S'normalized'
I4
tp3860
a(S'nearest'
I4
tp3861
a(S'wrong'
I4
tp3862
a(S'better'
I4
tp3863
a(S'dierent'
I4
tp3864
a(S'correspondence'
I4
tp3865
a(S'matched'
I4
tp3866
a(S'geom'
I4
tp3867
a(S'evaluation'
I4
tp3868
a(S'features'
I4
tp3869
a(S'tea'
I4
tp3870
a(S'pairwise'
I4
tp3871
a(S'surf'
I4
tp3872
a(S'quantitative'
I4
tp3873
a(S'average'
I4
tp3874
a(S'pattern'
I4
tp3875
a(S'walking'
I4
tp3876
a(S'ground'
I4
tp3877
asS'Rabe10eccv'
p3878
(lp3879
(S'flow'
I66
tp3880
a(S'motion'
I59
tp3881
a(S'optical'
I39
tp3882
a(S'field'
I37
tp3883
a(S'estimation'
I35
tp3884
a(S'image'
I33
tp3885
a(S'scene'
I32
tp3886
a(S'stereo'
I26
tp3887
a(S'kalman'
I25
tp3888
a(S'dense'
I25
tp3889
a(S'real-time'
I20
tp3890
a(S'dense6d'
I18
tp3891
a(S'filter'
I17
tp3892
a(S'proposed'
I16
tp3893
a(S'disparity'
I16
tp3894
a(S'method'
I15
tp3895
a(S'error'
I15
tp3896
a(S'accurate'
I15
tp3897
a(S'vector'
I14
tp3898
a(S'position'
I14
tp3899
a(S'computation'
I13
tp3900
a(S'filters'
I13
tp3901
a(S'measurement'
I12
tp3902
a(S'approaches'
I12
tp3903
a(S'based'
I12
tp3904
a(S'approach'
I12
tp3905
a(S'algorithm'
I12
tp3906
a(S'three-dimensional'
I11
tp3907
a(S'pixel'
I11
tp3908
a(S'variational'
I11
tp3909
a(S'model'
I11
tp3910
a(S'velocity'
I10
tp3911
a(S'variational6d'
I10
tp3912
a(S'data'
I9
tp3913
a(S'accuracy'
I9
tp3914
a(S'filtering'
I9
tp3915
a(S'term'
I9
tp3916
a(S'point'
I8
tp3917
a(S'robust'
I8
tp3918
a(S'methods'
I8
tp3919
a(S'time'
I8
tp3920
a(S'direct'
I7
tp3921
a(S'estimated'
I7
tp3922
a(S'component'
I7
tp3923
a(S'vision'
I7
tp3924
a(S'state'
I7
tp3925
a(S'filtered'
I7
tp3926
a(S'encodes'
I7
tp3927
a(S'depth'
I7
tp3928
a(S'camera'
I6
tp3929
a(S'feature'
I6
tp3930
a(S'rabe'
I6
tp3931
a(S'matrix'
I6
tp3932
a(S'system'
I6
tp3933
a(S'observed'
I6
tp3934
a(S'consecutive'
I6
tp3935
a(S'corresponding'
I6
tp3936
a(S'heidelberg'
I6
tp3937
a(S'tracking'
I6
tp3938
a(S'current'
I5
tp3939
a(S'international'
I5
tp3940
a(S'ground'
I5
tp3941
a(S'change'
I5
tp3942
a(S'projection'
I5
tp3943
a(S'xt-1'
I5
tp3944
a(S'regularization'
I5
tp3945
a(S'temporal'
I5
tp3946
a(S'truth'
I5
tp3947
a(S'directly'
I5
tp3948
a(S'scheme'
I5
tp3949
a(S'computer'
I5
tp3950
a(S'color'
I5
tp3951
a(S'conference'
I5
tp3952
a(S'components'
I5
tp3953
a(S'traffic'
I5
tp3954
a(S'sequence'
I5
tp3955
a(S'step'
I5
tp3956
a(S'frames'
I5
tp3957
a(S'sub-pixel'
I5
tp3958
a(S'leads'
I4
tp3959
a(S'solved'
I4
tp3960
a(S'linear'
I4
tp3961
a(S'discrete'
I4
tp3962
a(S'vectors'
I4
tp3963
a(S'green'
I4
tp3964
a(S'endpoint'
I4
tp3965
a(S'combination'
I4
tp3966
a(S'smoothness'
I4
tp3967
a(S'6d-vision'
I4
tp3968
a(S'capability'
I4
tp3969
a(S'extended'
I4
tp3970
a(S'evaluation'
I4
tp3971
a(S'turning'
I4
tp3972
a(S'determined'
I4
tp3973
a(S'implementation'
I4
tp3974
a(S'joint'
I4
tp3975
a(S'rms'
I4
tp3976
a(S'computed'
I4
tp3977
a(S'robustness'
I4
tp3978
a(S'future'
I4
tp3979
asS'Hornacek16cvpr'
p3980
(lp3981
(S'flow'
I46
tp3982
a(S'motion'
I38
tp3983
a(S'scene'
I36
tp3984
a(S'point'
I30
tp3985
a(S'depth'
I30
tp3986
a(S'matching'
I29
tp3987
a(S'check'
I29
tp3988
a(S'points'
I27
tp3989
a(S'figure'
I24
tp3990
a(S'pixel'
I24
tp3991
a(S'set'
I22
tp3992
a(S'rigid'
I21
tp3993
a(S'view'
I20
tp3994
a(S'pixels'
I20
tp3995
a(S'dof'
I19
tp3996
a(S'consistency'
I16
tp3997
a(S'local'
I16
tp3998
a(S'dense'
I16
tp3999
a(S'body'
I15
tp4000
a(S'data'
I15
tp4001
a(S'patches'
I13
tp4002
a(S'destination'
I13
tp4003
a(S'radius'
I13
tp4004
a(S'rgb-d'
I13
tp4005
a(S'valid'
I13
tp4006
a(S'large'
I11
tp4007
a(S'correspondence'
I11
tp4008
a(S'output'
I11
tp4009
a(S'image'
I11
tp4010
a(S'stereo'
I10
tp4011
a(S'compute'
I10
tp4012
a(S'field'
I10
tp4013
a(S'quiroga'
I10
tp4014
a(S'final'
I9
tp4015
a(S'silhouette'
I9
tp4016
a(S'fixed'
I9
tp4017
a(S'estimation'
I9
tp4018
a(S'corresponding'
I9
tp4019
a(S'surface'
I9
tp4020
a(S'optical'
I9
tp4021
a(S'glx'
I8
tp4022
a(S'introduce'
I8
tp4023
a(S'displacement'
I8
tp4024
a(S'carry'
I8
tp4025
a(S'hadfield'
I8
tp4026
a(S'fail'
I8
tp4027
a(S'color'
I8
tp4028
a(S'patchmatch'
I8
tp4029
a(S'encoded'
I8
tp4030
a(S'algorithm'
I8
tp4031
a(S'sphere'
I7
tp4032
a(S'motions'
I7
tp4033
a(S'brightness'
I7
tp4034
a(S'space'
I7
tp4035
a(S'evaluation'
I7
tp4036
a(S'geometry'
I7
tp4037
a(S'variational'
I7
tp4038
a(S'patch'
I7
tp4039
a(S'terms'
I7
tp4040
a(S'source'
I7
tp4041
a(S'kinect'
I7
tp4042
a(S'initial'
I7
tp4043
a(S'reasoning'
I6
tp4044
a(S'nearest'
I6
tp4045
a(S'displacements'
I6
tp4046
a(S'labeling'
I6
tp4047
a(S'recovered'
I6
tp4048
a(S'manner'
I6
tp4049
a(S'herbst'
I6
tp4050
a(S'rgb'
I6
tp4051
a(S'input'
I6
tp4052
a(S'occlusion'
I6
tp4053
a(S'planarity'
I6
tp4054
a(S'spatial'
I6
tp4055
a(S'rigidity'
I5
tp4056
a(S'number'
I5
tp4057
a(S'cost'
I5
tp4058
a(S'allows'
I5
tp4059
a(S'projection'
I5
tp4060
a(S'camera'
I5
tp4061
a(S'bleyer'
I5
tp4062
a(S'disparity'
I5
tp4063
a(S'left'
I5
tp4064
a(S'truth'
I5
tp4065
a(S'adaptive'
I5
tp4066
a(S'assign'
I5
tp4067
a(S'passed'
I5
tp4068
a(S'project'
I5
tp4069
a(S'pairwise'
I5
tp4070
a(S'zmed'
I5
tp4071
a(S'ground'
I5
tp4072
a(S'bowden'
I5
tp4073
a(S'equal'
I5
tp4074
a(S'expected'
I5
tp4075
a(S'inlier'
I5
tp4076
a(S'inliers'
I5
tp4077
a(S'handling'
I5
tp4078
a(S'vectors'
I5
tp4079
a(S'devernay'
I5
tp4080
a(S'rms-vz'
I5
tp4081
asS'Li05wacv'
p4082
(lp4083
(S'flow'
I89
tp4084
a(S'scene'
I52
tp4085
a(S'optical'
I41
tp4086
a(S'motion'
I38
tp4087
a(S'image'
I37
tp4088
a(S'disparity'
I23
tp4089
a(S'method'
I21
tp4090
a(S'model'
I19
tp4091
a(S'estimation'
I17
tp4092
a(S'video'
I16
tp4093
a(S'stereo'
I16
tp4094
a(S'approach'
I16
tp4095
a(S'ieee'
I14
tp4096
a(S'error'
I14
tp4097
a(S'figure'
I13
tp4098
a(S'left'
I13
tp4099
a(S'computing'
I13
tp4100
a(S'algorithm'
I13
tp4101
a(S'variance'
I11
tp4102
a(S'binocular'
I11
tp4103
a(S'frame'
I10
tp4104
a(S'multi-scale'
I10
tp4105
a(S'fitting'
I10
tp4106
a(S'sequence'
I10
tp4107
a(S'distribution'
I10
tp4108
a(S'computation'
I9
tp4109
a(S'framework'
I9
tp4110
a(S'gaussian'
I9
tp4111
a(S'covariance'
I9
tp4112
a(S'field'
I9
tp4113
a(S'time'
I9
tp4114
a(S'non-rigid'
I8
tp4115
a(S'problem'
I8
tp4116
a(S'estimate'
I8
tp4117
a(S'based'
I8
tp4118
a(S'computed'
I8
tp4119
a(S'region'
I8
tp4120
a(S'covariances'
I8
tp4121
a(S'noise'
I7
tp4122
a(S'data'
I7
tp4123
a(S'level'
I7
tp4124
a(S'magnitude'
I7
tp4125
a(S'cameras'
I7
tp4126
a(S'proceedings'
I7
tp4127
a(S'pixels'
I7
tp4128
a(S'workshop'
I7
tp4129
a(S'input'
I7
tp4130
a(S'scale'
I7
tp4131
a(S'compute'
I7
tp4132
a(S'distributions'
I7
tp4133
a(S'velocity'
I7
tp4134
a(S'structure'
I7
tp4135
a(S'resolution'
I7
tp4136
a(S'small'
I6
tp4137
a(S'estimated'
I6
tp4138
a(S'projection'
I6
tp4139
a(S'camera'
I6
tp4140
a(S'experiments'
I6
tp4141
a(S'weighted'
I6
tp4142
a(S'angular'
I6
tp4143
a(S'standard'
I6
tp4144
a(S'described'
I6
tp4145
a(S'variances'
I6
tp4146
a(S'pyramid'
I6
tp4147
a(S'solve'
I6
tp4148
a(S'row'
I5
tp4149
a(S'rigid'
I5
tp4150
a(S'regions'
I5
tp4151
a(S'correspondence'
I5
tp4152
a(S'integrated'
I5
tp4153
a(S'number'
I5
tp4154
a(S'points'
I5
tp4155
a(S'view'
I5
tp4156
a(S'uncertainty'
I5
tp4157
a(S'combined'
I5
tp4158
a(S'reliable'
I5
tp4159
a(S'parametric'
I5
tp4160
a(S'captured'
I5
tp4161
a(S'real'
I5
tp4162
a(S'represents'
I5
tp4163
a(S'methods'
I5
tp4164
a(S'dense'
I5
tp4165
a(S'problems'
I5
tp4166
a(S'deviation'
I5
tp4167
a(S'dynamic'
I4
tp4168
a(S'synthetic'
I4
tp4169
a(S'yvn'
I4
tp4170
a(S'zhang'
I4
tp4171
a(S'yv1'
I4
tp4172
a(S'solution'
I4
tp4173
a(S'nonrigid'
I4
tp4174
a(S'equation'
I4
tp4175
a(S'monocular'
I4
tp4176
a(S'estimates'
I4
tp4177
a(S'recovery'
I4
tp4178
a(S'order'
I4
tp4179
a(S'derivative'
I4
tp4180
a(S'denoted'
I4
tp4181
a(S'squares'
I4
tp4182
a(S'linear'
I4
tp4183
asS'Devernay06cvpr'
p4184
(lp4185
(S'3-d'
I77
tp4186
a(S'surfel'
I74
tp4187
a(S'scene'
I53
tp4188
a(S'tracking'
I51
tp4189
a(S'point'
I46
tp4190
a(S'texture'
I42
tp4191
a(S'flow'
I34
tp4192
a(S'points'
I29
tp4193
a(S'image'
I29
tp4194
a(S'visibility'
I27
tp4195
a(S'warp'
I26
tp4196
a(S'time'
I24
tp4197
a(S'ieee'
I22
tp4198
a(S'template'
I22
tp4199
a(S'method'
I21
tp4200
a(S'cameras'
I21
tp4201
a(S'parameters'
I21
tp4202
a(S'camera'
I19
tp4203
a(S'surface'
I17
tp4204
a(S'surfels'
I17
tp4205
a(S'computer'
I16
tp4206
a(S'2006'
I16
tp4207
a(S'pose'
I15
tp4208
a(S'compute'
I15
tp4209
a(S'frame'
I14
tp4210
a(S'lucas-kanade'
I13
tp4211
a(S'2-d'
I13
tp4212
a(S'projection'
I12
tp4213
a(S'multi-camera'
I11
tp4214
a(S'number'
I11
tp4215
a(S'optical'
I11
tp4216
a(S'robust'
I11
tp4217
a(S'update'
I11
tp4218
a(S'small'
I10
tp4219
a(S'motion'
I10
tp4220
a(S'vector'
I9
tp4221
a(S'reconstruction'
I9
tp4222
a(S'visible'
I9
tp4223
a(S'propose'
I9
tp4224
a(S'rotation'
I9
tp4225
a(S'track'
I9
tp4226
a(S'stereo'
I9
tp4227
a(S'vision'
I9
tp4228
a(S'conference'
I9
tp4229
a(S'position'
I9
tp4230
a(S'images'
I9
tp4231
a(S'work'
I8
tp4232
a(S'feature'
I8
tp4233
a(S'coordinates'
I8
tp4234
a(S'society'
I8
tp4235
a(S'proceedings'
I8
tp4236
a(S'set'
I8
tp4237
a(S'pattern'
I8
tp4238
a(S'appearance'
I8
tp4239
a(S'measurement'
I8
tp4240
a(S'methods'
I8
tp4241
a(S'recognition'
I8
tp4242
a(S'tracked'
I8
tp4243
a(S'formulation'
I8
tp4244
a(S'inverse'
I7
tp4245
a(S'additive'
I7
tp4246
a(S'order'
I7
tp4247
a(S'hessian'
I7
tp4248
a(S'state'
I7
tp4249
a(S'problem'
I7
tp4250
a(S'trajectories'
I7
tp4251
a(S'forward'
I7
tp4252
a(S'condition'
I6
tp4253
a(S'full'
I6
tp4254
a(S'affine'
I6
tp4255
a(S'energy'
I6
tp4256
a(S'translation'
I6
tp4257
a(S'jacobian'
I6
tp4258
a(S'estimation'
I6
tp4259
a(S'case'
I6
tp4260
a(S'pixel'
I6
tp4261
a(S'scale'
I6
tp4262
a(S'extension'
I6
tp4263
a(S'considered'
I6
tp4264
a(S'computing'
I6
tp4265
a(S'changes'
I5
tp4266
a(S'setup'
I5
tp4267
a(S'warps'
I5
tp4268
a(S'good'
I5
tp4269
a(S'matrix'
I5
tp4270
a(S'space'
I5
tp4271
a(S'identity'
I5
tp4272
a(S'extracted'
I5
tp4273
a(S'normal'
I5
tp4274
a(S'pyramidal'
I5
tp4275
a(S'variance'
I5
tp4276
a(S'expression'
I5
tp4277
a(S'planar'
I5
tp4278
a(S'lost'
I5
tp4279
a(S'classical'
I5
tp4280
a(S'tracker'
I5
tp4281
a(S'compositional'
I5
tp4282
a(S'resolution'
I5
tp4283
a(S'updated'
I4
tp4284
a(S'presented'
I4
tp4285
asS'Li08cviu'
p4286
(lp4287
(S'flow'
I148
tp4288
a(S'image'
I97
tp4289
a(S'scene'
I85
tp4290
a(S'optical'
I77
tp4291
a(S'disparity'
I52
tp4292
a(S'motion'
I48
tp4293
a(S'algorithm'
I44
tp4294
a(S'method'
I42
tp4295
a(S'estimation'
I40
tp4296
a(S'error'
I37
tp4297
a(S'model'
I33
tp4298
a(S'stereo'
I31
tp4299
a(S'approach'
I28
tp4300
a(S'region'
I28
tp4301
a(S'estimates'
I22
tp4302
a(S'vision'
I22
tp4303
a(S'proposed'
I22
tp4304
a(S'understanding'
I20
tp4305
a(S'computer'
I18
tp4306
a(S'methods'
I18
tp4307
a(S'video'
I17
tp4308
a(S'estimated'
I17
tp4309
a(S'sclaroff'
I17
tp4310
a(S'data'
I17
tp4311
a(S'estimate'
I17
tp4312
a(S'fitting'
I17
tp4313
a(S'uncertainty'
I17
tp4314
a(S'cameras'
I16
tp4315
a(S'compute'
I16
tp4316
a(S'pixels'
I16
tp4317
a(S'covariance'
I16
tp4318
a(S'110'
I16
tp4319
a(S'computation'
I15
tp4320
a(S'based'
I15
tp4321
a(S'local'
I15
tp4322
a(S'shape'
I15
tp4323
a(S'errors'
I14
tp4324
a(S'depth'
I14
tp4325
a(S'non-rigid'
I13
tp4326
a(S'experiments'
I13
tp4327
a(S'sequence'
I13
tp4328
a(S'computing'
I13
tp4329
a(S'time'
I13
tp4330
a(S'multi-scale'
I12
tp4331
a(S'standard'
I12
tp4332
a(S'dense'
I12
tp4333
a(S'distributions'
I12
tp4334
a(S'regions'
I11
tp4335
a(S'noise'
I11
tp4336
a(S'three'
I11
tp4337
a(S'pyramid'
I11
tp4338
a(S'surface'
I11
tp4339
a(S'solve'
I11
tp4340
a(S'left'
I11
tp4341
a(S'images'
I11
tp4342
a(S'dynamic'
I10
tp4343
a(S'level'
I10
tp4344
a(S'camera'
I10
tp4345
a(S'displacements'
I10
tp4346
a(S'angular'
I10
tp4347
a(S'set'
I10
tp4348
a(S'computed'
I10
tp4349
a(S'pixel'
I10
tp4350
a(S'parametric'
I10
tp4351
a(S'problem'
I10
tp4352
a(S'large'
I9
tp4353
a(S'segmentation'
I9
tp4354
a(S'process'
I9
tp4355
a(S'map'
I9
tp4356
a(S'estimating'
I9
tp4357
a(S'weighted'
I9
tp4358
a(S'evaluation'
I9
tp4359
a(S'points'
I9
tp4360
a(S'techniques'
I9
tp4361
a(S'pami'
I9
tp4362
a(S'reliable'
I9
tp4363
a(S'captured'
I9
tp4364
a(S'real'
I9
tp4365
a(S'gaussian'
I9
tp4366
a(S'field'
I9
tp4367
a(S'deviation'
I9
tp4368
a(S'structure'
I9
tp4369
a(S'covariances'
I9
tp4370
a(S'setup'
I8
tp4371
a(S'region-based'
I8
tp4372
a(S'applications'
I8
tp4373
a(S'magnitude'
I8
tp4374
a(S'multiple'
I8
tp4375
a(S'propagate'
I8
tp4376
a(S'areas'
I8
tp4377
a(S'fields'
I8
tp4378
a(S'variance'
I8
tp4379
a(S'moving'
I8
tp4380
a(S'formulation'
I8
tp4381
a(S'binocular'
I8
tp4382
a(S'solution'
I7
tp4383
a(S'second'
I7
tp4384
a(S'reported'
I7
tp4385
a(S'displacement'
I7
tp4386
a(S'squares'
I7
tp4387
asS'Isard06accv'
p4388
(lp4389
(S'motion'
I58
tp4390
a(S'stereo'
I56
tp4391
a(S'disparity'
I44
tp4392
a(S'image'
I43
tp4393
a(S'previous'
I24
tp4394
a(S'dense'
I17
tp4395
a(S'temporal'
I16
tp4396
a(S'visible'
I15
tp4397
a(S'belief'
I15
tp4398
a(S'current'
I13
tp4399
a(S'estimate'
I13
tp4400
a(S'left'
I13
tp4401
a(S'two-frame'
I12
tp4402
a(S'propagation'
I12
tp4403
a(S'model'
I12
tp4404
a(S'log'
I12
tp4405
a(S'algorithm'
I12
tp4406
a(S'work'
I11
tp4407
a(S'data'
I11
tp4408
a(S'non-reference'
I11
tp4409
a(S'occlusion'
I11
tp4410
a(S'object'
I11
tp4411
a(S'reference'
I11
tp4412
a(S'estimation'
I11
tp4413
a(S'cost'
I10
tp4414
a(S'loopy'
I10
tp4415
a(S'mrf'
I10
tp4416
a(S'approach'
I10
tp4417
a(S'single'
I10
tp4418
a(S'estimates'
I9
tp4419
a(S'filtering'
I9
tp4420
a(S'function'
I9
tp4421
a(S'estimated'
I8
tp4422
a(S'pixel'
I8
tp4423
a(S'computer'
I8
tp4424
a(S'state'
I8
tp4425
a(S'patches'
I7
tp4426
a(S'nodes'
I7
tp4427
a(S'objects'
I7
tp4428
a(S'foreground'
I7
tp4429
a(S'nssd'
I7
tp4430
a(S'computation'
I6
tp4431
a(S'scene'
I6
tp4432
a(S'centered'
I6
tp4433
a(S'probabilistic'
I6
tp4434
a(S'fields'
I6
tp4435
a(S'vision'
I6
tp4436
a(S'three'
I6
tp4437
a(S'point'
I6
tp4438
a(S'frames'
I6
tp4439
a(S'form'
I6
tp4440
a(S'time'
I6
tp4441
a(S'large'
I5
tp4442
a(S'small'
I5
tp4443
a(S'video'
I5
tp4444
a(S'contrast'
I5
tp4445
a(S'occlusions'
I5
tp4446
a(S'map'
I5
tp4447
a(S'approaches'
I5
tp4448
a(S'maccormick'
I5
tp4449
a(S'note'
I5
tp4450
a(S'isard'
I5
tp4451
a(S'continuity'
I5
tp4452
a(S'graphical'
I5
tp4453
a(S'filtered'
I5
tp4454
a(S'status'
I5
tp4455
a(S'moving'
I5
tp4456
a(S'location'
I5
tp4457
a(S'sequence'
I5
tp4458
a(S'images'
I5
tp4459
a(S'assuming'
I5
tp4460
a(S'problem'
I5
tp4461
a(S'computational'
I5
tp4462
a(S'graph'
I4
tp4463
a(S'labels'
I4
tp4464
a(S'linear'
I4
tp4465
a(S'technical'
I4
tp4466
a(S'negative'
I4
tp4467
a(S'values'
I4
tp4468
a(S'figure'
I4
tp4469
a(S'compatibility'
I4
tp4470
a(S'estimating'
I4
tp4471
a(S'term'
I4
tp4472
a(S'standard'
I4
tp4473
a(S'pairs'
I4
tp4474
a(S'neighboring'
I4
tp4475
a(S'based'
I4
tp4476
a(S'distributed'
I4
tp4477
a(S'patch'
I4
tp4478
a(S'computed'
I4
tp4479
a(S'terms'
I4
tp4480
a(S'pixels'
I4
tp4481
a(S'occluded'
I4
tp4482
a(S'described'
I4
tp4483
a(S'coherent'
I4
tp4484
a(S'components'
I4
tp4485
a(S'output'
I4
tp4486
a(S'binocular'
I4
tp4487
a(S'node'
I4
tp4488
a(S'difference'
I3
tp4489
asS'Basha10cvpr'
p4490
(lp4491
(S'scene'
I54
tp4492
a(S'flow'
I54
tp4493
a(S'motion'
I32
tp4494
a(S'image'
I23
tp4495
a(S'time'
I23
tp4496
a(S'optical'
I19
tp4497
a(S'stereo'
I19
tp4498
a(S'computed'
I19
tp4499
a(S'depth'
I19
tp4500
a(S'error'
I18
tp4501
a(S'method'
I17
tp4502
a(S'views'
I17
tp4503
a(S'functional'
I17
tp4504
a(S'variational'
I15
tp4505
a(S'multi-view'
I15
tp4506
a(S'reference'
I15
tp4507
a(S'structure'
I15
tp4508
a(S'data'
I14
tp4509
a(S'point'
I14
tp4510
a(S'smoothness'
I14
tp4511
a(S'projection'
I13
tp4512
a(S'disparity'
I13
tp4513
a(S'errors'
I12
tp4514
a(S'view'
I12
tp4515
a(S'three'
I12
tp4516
a(S'surface'
I12
tp4517
a(S'cameras'
I11
tp4518
a(S'pixels'
I11
tp4519
a(S'images'
I11
tp4520
a(S'equations'
I10
tp4521
a(S'camera'
I10
tp4522
a(S'unknowns'
I10
tp4523
a(S'directly'
I10
tp4524
a(S'assumption'
I10
tp4525
a(S'occluded'
I10
tp4526
a(S'term'
I9
tp4527
a(S'energy'
I9
tp4528
a(S'approach'
I9
tp4529
a(S'parametrization'
I9
tp4530
a(S'dense'
I9
tp4531
a(S'figure'
I8
tp4532
a(S'assumptions'
I8
tp4533
a(S'proposed'
I8
tp4534
a(S'field'
I8
tp4535
a(S'large'
I7
tp4536
a(S'simultaneously'
I7
tp4537
a(S'desired'
I7
tp4538
a(S'maps'
I7
tp4539
a(S'order'
I7
tp4540
a(S'framework'
I7
tp4541
a(S'evaluation'
I7
tp4542
a(S'multiple'
I7
tp4543
a(S'sequences'
I7
tp4544
a(S'occlusion'
I7
tp4545
a(S'real'
I7
tp4546
a(S'methods'
I7
tp4547
a(S'discontinuities'
I7
tp4548
a(S'euler-lagrange'
I7
tp4549
a(S'global'
I6
tp4550
a(S'consists'
I6
tp4551
a(S'synthetic'
I6
tp4552
a(S'regularization'
I6
tp4553
a(S'regions'
I6
tp4554
a(S'map'
I6
tp4555
a(S'representation'
I6
tp4556
a(S'system'
I6
tp4557
a(S'ground'
I6
tp4558
a(S'set'
I6
tp4559
a(S'estimation'
I6
tp4560
a(S'occlusions'
I6
tp4561
a(S'calibrated'
I6
tp4562
a(S'shape'
I6
tp4563
a(S'warped'
I6
tp4564
a(S'imposed'
I6
tp4565
a(S'minimization'
I6
tp4566
a(S'additional'
I6
tp4567
a(S'compute'
I6
tp4568
a(S'solution'
I5
tp4569
a(S'involves'
I5
tp4570
a(S'spatio-temporal'
I5
tp4571
a(S'challenging'
I5
tp4572
a(S'pixel'
I5
tp4573
a(S'magnitude'
I5
tp4574
a(S'projected'
I5
tp4575
a(S'note'
I5
tp4576
a(S'constancy'
I5
tp4577
a(S'suggested'
I5
tp4578
a(S'respect'
I5
tp4579
a(S'function'
I5
tp4580
a(S'volume'
I5
tp4581
a(S'associated'
I5
tp4582
a(S'corresponding'
I5
tp4583
a(S'functions'
I5
tp4584
a(S'deviation'
I5
tp4585
a(S'leads'
I4
tp4586
a(S'rotating'
I4
tp4587
a(S'vector'
I4
tp4588
a(S'tel'
I4
tp4589
a(S'colored'
I4
tp4590
a(S'allows'
I4
tp4591
asS'Hadfield11iccv'
p4592
(lp4593
(S'scene'
I99
tp4594
a(S'flow'
I51
tp4595
a(S'motion'
I50
tp4596
a(S'particle'
I36
tp4597
a(S'depth'
I32
tp4598
a(S'algorithm'
I22
tp4599
a(S'particles'
I20
tp4600
a(S'estimation'
I19
tp4601
a(S'field'
I15
tp4602
a(S'structure'
I15
tp4603
a(S'camera'
I14
tp4604
a(S'image'
I13
tp4605
a(S'optical'
I13
tp4606
a(S'point'
I13
tp4607
a(S'appearance'
I13
tp4608
a(S'estimated'
I12
tp4609
a(S'stereo'
I12
tp4610
a(S'velocity'
I12
tp4611
a(S'approach'
I12
tp4612
a(S'estimate'
I11
tp4613
a(S'probability'
I11
tp4614
a(S'number'
I10
tp4615
a(S'images'
I10
tp4616
a(S'multi-view'
I9
tp4617
a(S'single'
I9
tp4618
a(S'previous'
I9
tp4619
a(S'dense'
I9
tp4620
a(S'existing'
I8
tp4621
a(S'projection'
I8
tp4622
a(S'making'
I8
tp4623
a(S'hypotheses'
I8
tp4624
a(S'approaches'
I8
tp4625
a(S'accuracy'
I8
tp4626
a(S'based'
I8
tp4627
a(S'position'
I8
tp4628
a(S'work'
I7
tp4629
a(S'figure'
I7
tp4630
a(S'paper'
I7
tp4631
a(S'estimating'
I7
tp4632
a(S'multiple'
I7
tp4633
a(S'cones'
I7
tp4634
a(S'resampling'
I7
tp4635
a(S'vector'
I6
tp4636
a(S'venus'
I6
tp4637
a(S'estimates'
I6
tp4638
a(S'standard'
I6
tp4639
a(S'performed'
I6
tp4640
a(S'ray'
I6
tp4641
a(S'areas'
I6
tp4642
a(S'sensor'
I6
tp4643
a(S'teddy'
I6
tp4644
a(S'maximum'
I6
tp4645
a(S'coverage'
I6
tp4646
a(S'monocular'
I5
tp4647
a(S'allows'
I5
tp4648
a(S'regions'
I5
tp4649
a(S'space'
I5
tp4650
a(S'cameras'
I5
tp4651
a(S'likelihood'
I5
tp4652
a(S'system'
I5
tp4653
a(S'performance'
I5
tp4654
a(S'object'
I5
tp4655
a(S'view'
I5
tp4656
a(S'set'
I5
tp4657
a(S'accurate'
I5
tp4658
a(S'output'
I5
tp4659
a(S'velocities'
I5
tp4660
a(S'sequence'
I5
tp4661
a(S'range'
I5
tp4662
a(S'additional'
I5
tp4663
a(S'application'
I4
tp4664
a(S'cost'
I4
tp4665
a(S'current'
I4
tp4666
a(S'search'
I4
tp4667
a(S'high'
I4
tp4668
a(S'provide'
I4
tp4669
a(S'constraints'
I4
tp4670
a(S'modern'
I4
tp4671
a(S'local'
I4
tp4672
a(S'frame'
I4
tp4673
a(S'applied'
I4
tp4674
a(S'moving'
I4
tp4675
a(S'kinect'
I4
tp4676
a(S'input'
I4
tp4677
a(S'matching'
I4
tp4678
a(S'compared'
I4
tp4679
a(S'middlebury'
I4
tp4680
a(S'global'
I3
tp4681
a(S'finally'
I3
tp4682
a(S'presented'
I3
tp4683
a(S'smaller'
I3
tp4684
a(S'second'
I3
tp4685
a(S'video'
I3
tp4686
a(S'reconstruction'
I3
tp4687
a(S'leg'
I3
tp4688
a(S'visible'
I3
tp4689
a(S'sensors'
I3
tp4690
a(S'producing'
I3
tp4691
a(S'tracking'
I3
tp4692
a(S'equation'
I3
tp4693
asS'Zanfir15iccv'
p4694
(lp4695
(S'flow'
I49
tp4696
a(S'scene'
I43
tp4697
a(S'depth'
I42
tp4698
a(S'motion'
I28
tp4699
a(S'point'
I26
tp4700
a(S'large'
I25
tp4701
a(S'rigid'
I25
tp4702
a(S'occlusion'
I25
tp4703
a(S'computer'
I23
tp4704
a(S'energy'
I21
tp4705
a(S'optical'
I21
tp4706
a(S'image'
I20
tp4707
a(S'conference'
I19
tp4708
a(S'ieee'
I18
tp4709
a(S'geometric'
I18
tp4710
a(S'vision'
I17
tp4711
a(S'wij'
I16
tp4712
a(S'points'
I16
tp4713
a(S'local'
I16
tp4714
a(S'based'
I15
tp4715
a(S'model'
I15
tp4716
a(S'rgb-d'
I15
tp4717
a(S'field'
I15
tp4718
a(S'international'
I14
tp4719
a(S'appearance'
I13
tp4720
a(S'dense'
I13
tp4721
a(S'method'
I12
tp4722
a(S'correspondences'
I12
tp4723
a(S'order'
I11
tp4724
a(S'pattern'
I11
tp4725
a(S'algorithm'
I11
tp4726
a(S'cloud'
I10
tp4727
a(S'parameters'
I10
tp4728
a(S'estimation'
I10
tp4729
a(S'function'
I10
tp4730
a(S'reasoning'
I9
tp4731
a(S'neighborhood'
I9
tp4732
a(S'estimates'
I9
tp4733
a(S'component'
I9
tp4734
a(S'work'
I9
tp4735
a(S'map'
I9
tp4736
a(S'displacement'
I9
tp4737
a(S'large-displacement'
I9
tp4738
a(S'set'
I9
tp4739
a(S'frame'
I9
tp4740
a(S'state'
I9
tp4741
a(S'corresponding'
I9
tp4742
a(S'rigidity'
I8
tp4743
a(S'parameter'
I8
tp4744
a(S'displacements'
I8
tp4745
a(S'correspondence'
I8
tp4746
a(S'sintel'
I8
tp4747
a(S'initial'
I8
tp4748
a(S'level'
I7
tp4749
a(S'second'
I7
tp4750
a(S'estimate'
I7
tp4751
a(S'data'
I7
tp4752
a(S'proceedings'
I7
tp4753
a(S'art'
I7
tp4754
a(S'observed'
I7
tp4755
a(S'define'
I7
tp4756
a(S'exponential'
I7
tp4757
a(S'optimization'
I7
tp4758
a(S'methods'
I7
tp4759
a(S'pairs'
I6
tp4760
a(S'neighborhoods'
I6
tp4761
a(S'handle'
I6
tp4762
a(S'terms'
I6
tp4763
a(S'color'
I6
tp4764
a(S'matching'
I6
tp4765
a(S'estimated'
I5
tp4766
a(S'projection'
I5
tp4767
a(S'camera'
I5
tp4768
a(S'explicit'
I5
tp4769
a(S'estimating'
I5
tp4770
a(S'training'
I5
tp4771
a(S'locations'
I5
tp4772
a(S'fields'
I5
tp4773
a(S'sequences'
I5
tp4774
a(S'locally'
I5
tp4775
a(S'anchors'
I5
tp4776
a(S'dji'
I5
tp4777
a(S'difficult'
I5
tp4778
a(S'well'
I5
tp4779
a(S'consistency'
I5
tp4780
a(S'images'
I5
tp4781
a(S'optimize'
I5
tp4782
a(S'computational'
I5
tp4783
a(S'dataset'
I5
tp4784
a(S'support'
I5
tp4785
a(S'complete'
I5
tp4786
a(S'defined'
I5
tp4787
a(S'formulation'
I5
tp4788
a(S'structure'
I5
tp4789
a(S'neighbours'
I4
tp4790
a(S'case'
I4
tp4791
a(S'translations'
I4
tp4792
a(S'solution'
I4
tp4793
a(S'vector'
I4
tp4794
a(S'pass'
I4
tp4795
asS'Gotardo15iccv'
p4796
(lp4797
(S'flow'
I48
tp4798
a(S'surface'
I47
tp4799
a(S'motion'
I37
tp4800
a(S'photometric'
I31
tp4801
a(S'pgsf'
I30
tp4802
a(S'image'
I27
tp4803
a(S'stereo'
I25
tp4804
a(S'scene'
I24
tp4805
a(S'rgb'
I23
tp4806
a(S'time'
I23
tp4807
a(S'mvs'
I22
tp4808
a(S'illumination'
I21
tp4809
a(S'geometry'
I20
tp4810
a(S'images'
I19
tp4811
a(S'color'
I18
tp4812
a(S'light'
I17
tp4813
a(S'capture'
I17
tp4814
a(S'albedo'
I16
tp4815
a(S'dynamic'
I14
tp4816
a(S'video'
I14
tp4817
a(S'reconstruction'
I14
tp4818
a(S'camera'
I14
tp4819
a(S'linear'
I14
tp4820
a(S'depth'
I14
tp4821
a(S'energy'
I13
tp4822
a(S'alignment'
I13
tp4823
a(S'detail'
I13
tp4824
a(S'setup'
I12
tp4825
a(S'figure'
I12
tp4826
a(S'constraints'
I12
tp4827
a(S'method'
I11
tp4828
a(S'photogeometric'
I10
tp4829
a(S'3-frame'
I10
tp4830
a(S'optical'
I10
tp4831
a(S'matching'
I10
tp4832
a(S'assumption'
I9
tp4833
a(S'approach'
I9
tp4834
a(S'appearance'
I9
tp4835
a(S'algorithm'
I9
tp4836
a(S'changes'
I8
tp4837
a(S'relighting'
I8
tp4838
a(S'propose'
I8
tp4839
a(S'number'
I8
tp4840
a(S'model'
I8
tp4841
a(S'face'
I8
tp4842
a(S'based'
I8
tp4843
a(S'acm'
I8
tp4844
a(S'terms'
I8
tp4845
a(S'pixels'
I8
tp4846
a(S'define'
I8
tp4847
a(S'supplementary'
I8
tp4848
a(S'three'
I8
tp4849
a(S'frames'
I8
tp4850
a(S'defined'
I8
tp4851
a(S'normal'
I8
tp4852
a(S'lights'
I7
tp4853
a(S'colored'
I7
tp4854
a(S'cameras'
I7
tp4855
a(S'pairs'
I7
tp4856
a(S'acquisition'
I7
tp4857
a(S'3-color'
I7
tp4858
a(S'relation'
I7
tp4859
a(S'view'
I7
tp4860
a(S'problem'
I7
tp4861
a(S'estimation'
I7
tp4862
a(S'flows'
I7
tp4863
a(S'consistency'
I7
tp4864
a(S'simple'
I7
tp4865
a(S'shading'
I7
tp4866
a(S'update'
I7
tp4867
a(S'consider'
I6
tp4868
a(S'small'
I6
tp4869
a(S'estimates'
I6
tp4870
a(S'current'
I6
tp4871
a(S'values'
I6
tp4872
a(S'spt'
I6
tp4873
a(S'ieee'
I6
tp4874
a(S'pixel'
I6
tp4875
a(S'term'
I6
tp4876
a(S'recover'
I6
tp4877
a(S'reflectance'
I6
tp4878
a(S'real'
I6
tp4879
a(S'facial'
I6
tp4880
a(S'performance'
I6
tp4881
a(S'time-multiplexed'
I6
tp4882
a(S'compute'
I6
tp4883
a(S'binocular'
I6
tp4884
a(S'spatial'
I6
tp4885
a(S'multiview'
I5
tp4886
a(S'solution'
I5
tp4887
a(S'consistent'
I5
tp4888
a(S'estimated'
I5
tp4889
a(S'errors'
I5
tp4890
a(S'full'
I5
tp4891
a(S'simultaneously'
I5
tp4892
a(S'vectors'
I5
tp4893
a(S'regularization'
I5
tp4894
a(S'multiplexed'
I5
tp4895
a(S'forwards'
I5
tp4896
a(S'highlights'
I5
tp4897
asS'Sizintsev12pami'
p4898
(lp4899
(S'flow'
I66
tp4900
a(S'stereo'
I62
tp4901
a(S'spatiotemporal'
I62
tp4902
a(S'motion'
I55
tp4903
a(S'disparity'
I49
tp4904
a(S'image'
I47
tp4905
a(S'scene'
I43
tp4906
a(S'left'
I42
tp4907
a(S'ieee'
I41
tp4908
a(S'temporal'
I41
tp4909
a(S'computer'
I41
tp4910
a(S'matching'
I40
tp4911
a(S'local'
I39
tp4912
a(S'estimation'
I33
tp4913
a(S'stequel'
I32
tp4914
a(S'stequels'
I28
tp4915
a(S'pattern'
I27
tp4916
a(S'optical'
I26
tp4917
a(S'binocular'
I24
tp4918
a(S'recovery'
I23
tp4919
a(S'orientation'
I23
tp4920
a(S'spacetime'
I22
tp4921
a(S'correspondence'
I22
tp4922
a(S'structure'
I22
tp4923
a(S'vision'
I21
tp4924
a(S'spatial'
I21
tp4925
a(S'estimates'
I20
tp4926
a(S'approach'
I18
tp4927
a(S'data'
I18
tp4928
a(S'recovered'
I18
tp4929
a(S'error'
I16
tp4930
a(S'analysis'
I16
tp4931
a(S'match'
I16
tp4932
a(S'lab'
I15
tp4933
a(S'comparison'
I14
tp4934
a(S'work'
I13
tp4935
a(S'oriented'
I13
tp4936
a(S'temporally'
I13
tp4937
a(S'global'
I13
tp4938
a(S'camera'
I13
tp4939
a(S'corresponding'
I13
tp4940
a(S'machine'
I12
tp4941
a(S'quadric'
I12
tp4942
a(S'yields'
I12
tp4943
a(S'vectors'
I11
tp4944
a(S'set'
I11
tp4945
a(S'sizintsev'
I11
tp4946
a(S'terms'
I10
tp4947
a(S'representation'
I10
tp4948
a(S'ground'
I10
tp4949
a(S'maps'
I10
tp4950
a(S'truth'
I10
tp4951
a(S'based'
I10
tp4952
a(S'frame'
I10
tp4953
a(S'previous'
I9
tp4954
a(S'time'
I9
tp4955
a(S'considered'
I9
tp4956
a(S'filters'
I9
tp4957
a(S'relationship'
I9
tp4958
a(S'frames'
I9
tp4959
a(S'depth'
I9
tp4960
a(S'sequence'
I9
tp4961
a(S'june'
I9
tp4962
a(S'dynamic'
I8
tp4963
a(S'vector'
I8
tp4964
a(S'consistent'
I8
tp4965
a(S'coherent'
I8
tp4966
a(S'cost'
I8
tp4967
a(S'explicit'
I8
tp4968
a(S'matched'
I8
tp4969
a(S'space'
I8
tp4970
a(S'performance'
I8
tp4971
a(S'consider'
I8
tp4972
a(S'directions'
I8
tp4973
a(S'corresponds'
I8
tp4974
a(S'aggregation'
I8
tp4975
a(S'2012'
I8
tp4976
a(S'respect'
I8
tp4977
a(S'capture'
I8
tp4978
a(S'point'
I8
tp4979
a(S'direct'
I7
tp4980
a(S'textured'
I7
tp4981
a(S'example'
I7
tp4982
a(S'filter'
I7
tp4983
a(S'transactions'
I7
tp4984
a(S'orientations'
I7
tp4985
a(S'plots'
I7
tp4986
a(S'texture'
I7
tp4987
a(S'derived'
I7
tp4988
a(S'energy'
I7
tp4989
a(S'evaluation'
I7
tp4990
a(S'methods'
I7
tp4991
a(S'associated'
I7
tp4992
a(S'defined'
I7
tp4993
a(S'video'
I7
tp4994
a(S'regions'
I7
tp4995
a(S'light'
I7
tp4996
a(S'intensity'
I7
tp4997
a(S'sequences'
I7
tp4998
a(S'solution'
I6
tp4999
asS'Letouzey11bmvc'
p5000
(lp5001
(S'depth'
I45
tp5002
a(S'motion'
I43
tp5003
a(S'flow'
I42
tp5004
a(S'color'
I40
tp5005
a(S'scene'
I27
tp5006
a(S'images'
I24
tp5007
a(S'data'
I21
tp5008
a(S'surface'
I21
tp5009
a(S'image'
I21
tp5010
a(S'method'
I16
tp5011
a(S'constraints'
I14
tp5012
a(S'camera'
I13
tp5013
a(S'displacement'
I12
tp5014
a(S'optical'
I12
tp5015
a(S'computer'
I12
tp5016
a(S'large'
I11
tp5017
a(S'figure'
I11
tp5018
a(S'cameras'
I11
tp5019
a(S'regularization'
I10
tp5020
a(S'term'
I10
tp5021
a(S'normal'
I10
tp5022
a(S'error'
I10
tp5023
a(S'proposed'
I10
tp5024
a(S'dense'
I10
tp5025
a(S'field'
I10
tp5026
a(S'synthetic'
I9
tp5027
a(S'mesh'
I9
tp5028
a(S'points'
I9
tp5029
a(S'estimation'
I9
tp5030
a(S'photometric'
I9
tp5031
a(S'order'
I8
tp5032
a(S'estimate'
I8
tp5033
a(S'features'
I8
tp5034
a(S'sparse'
I8
tp5035
a(S'consider'
I7
tp5036
a(S'small'
I7
tp5037
a(S'estimated'
I7
tp5038
a(S'equation'
I7
tp5039
a(S'work'
I7
tp5040
a(S'map'
I7
tp5041
a(S'meshed'
I7
tp5042
a(S'stereo'
I7
tp5043
a(S'fields'
I7
tp5044
a(S'approach'
I7
tp5045
a(S'weights'
I7
tp5046
a(S'international'
I6
tp5047
a(S'feature'
I6
tp5048
a(S'linear'
I6
tp5049
a(S'directly'
I6
tp5050
a(S'vision'
I6
tp5051
a(S'intensity'
I6
tp5052
a(S'moving'
I6
tp5053
a(S'real'
I6
tp5054
a(S'global'
I5
tp5055
a(S'projection'
I5
tp5056
a(S'handle'
I5
tp5057
a(S'acquired'
I5
tp5058
a(S'consecutive'
I5
tp5059
a(S'point'
I5
tp5060
a(S'combined'
I5
tp5061
a(S'interest'
I5
tp5062
a(S'correspondences'
I5
tp5063
a(S'additional'
I5
tp5064
a(S'resolution'
I5
tp5065
a(S'associated'
I4
tp5066
a(S'displacements'
I4
tp5067
a(S'coming'
I4
tp5068
a(S'experiments'
I4
tp5069
a(S'temporal'
I4
tp5070
a(S'solving'
I4
tp5071
a(S'smoothness'
I4
tp5072
a(S'matrix'
I4
tp5073
a(S'scheme'
I4
tp5074
a(S'multiple'
I4
tp5075
a(S'local'
I4
tp5076
a(S'set'
I4
tp5077
a(S'variations'
I4
tp5078
a(S'pattern'
I4
tp5079
a(S'geometric'
I4
tp5080
a(S'terms'
I4
tp5081
a(S'configuration'
I4
tp5082
a(S'conference'
I4
tp5083
a(S'laplacian'
I4
tp5084
a(S'calibrated'
I4
tp5085
a(S'consistency'
I4
tp5086
a(S'kinect'
I4
tp5087
a(S'input'
I4
tp5088
a(S'easily'
I4
tp5089
a(S'yields'
I4
tp5090
a(S'sequence'
I4
tp5091
a(S'discontinuities'
I4
tp5092
a(S'step'
I4
tp5093
a(S'extension'
I4
tp5094
a(S'problem'
I4
tp5095
a(S'journal'
I4
tp5096
a(S'structure'
I4
tp5097
a(S'time-of-flight'
I4
tp5098
a(S'existing'
I3
tp5099
a(S'instantaneous'
I3
tp5100
a(S'norm'
I3
tp5101
asS'Quiroga13icip'
p5102
(lp5103
(S'flow'
I85
tp5104
a(S'scene'
I73
tp5105
a(S'motion'
I70
tp5106
a(S'depth'
I38
tp5107
a(S'intensity'
I21
tp5108
a(S'optical'
I20
tp5109
a(S'data'
I18
tp5110
a(S'image'
I17
tp5111
a(S'estimation'
I15
tp5112
a(S'regularization'
I14
tp5113
a(S'term'
I14
tp5114
a(S'local'
I14
tp5115
a(S'field'
I14
tp5116
a(S'approach'
I12
tp5117
a(S'solve'
I12
tp5118
a(S'dense'
I12
tp5119
a(S'rigid'
I11
tp5120
a(S'stereo'
I11
tp5121
a(S'set'
I10
tp5122
a(S'computer'
I10
tp5123
a(S'conference'
I10
tp5124
a(S'compute'
I10
tp5125
a(S'estimated'
I9
tp5126
a(S'lgsf'
I9
tp5127
a(S'based'
I9
tp5128
a(S'component'
I8
tp5129
a(S'estimate'
I8
tp5130
a(S'method'
I8
tp5131
a(S'point'
I8
tp5132
a(S'tv-l1'
I8
tp5133
a(S'locally'
I8
tp5134
a(S'pattern'
I7
tp5135
a(S'computation'
I6
tp5136
a(S'include'
I6
tp5137
a(S'international'
I6
tp5138
a(S'variational'
I6
tp5139
a(S'frame'
I6
tp5140
a(S'observed'
I6
tp5141
a(S'methods'
I6
tp5142
a(S'deal'
I6
tp5143
a(S'function'
I6
tp5144
a(S'structure'
I6
tp5145
a(S'time'
I6
tp5146
a(S'global'
I5
tp5147
a(S'solution'
I5
tp5148
a(S'large'
I5
tp5149
a(S'work'
I5
tp5150
a(S'allows'
I5
tp5151
a(S'preserving'
I5
tp5152
a(S'performed'
I5
tp5153
a(S'motions'
I5
tp5154
a(S'truth'
I5
tp5155
a(S'constraints'
I5
tp5156
a(S'approaches'
I5
tp5157
a(S'constrain'
I5
tp5158
a(S'ground'
I5
tp5159
a(S'vision'
I5
tp5160
a(S'computed'
I5
tp5161
a(S'surface'
I5
tp5162
a(S'model'
I5
tp5163
a(S'matching'
I5
tp5164
a(S'range'
I5
tp5165
a(S'errors'
I4
tp5166
a(S'larger'
I4
tp5167
a(S'camera'
I4
tp5168
a(S'modified'
I4
tp5169
a(S'table'
I4
tp5170
a(S'order'
I4
tp5171
a(S'lsf'
I4
tp5172
a(S'machine'
I4
tp5173
a(S'nrmsof'
I4
tp5174
a(S'adaptive'
I4
tp5175
a(S'assumption'
I4
tp5176
a(S'best'
I4
tp5177
a(S'color'
I4
tp5178
a(S'interest'
I4
tp5179
a(S'define'
I4
tp5180
a(S'moving'
I4
tp5181
a(S'well'
I4
tp5182
a(S'consistency'
I4
tp5183
a(S'proposed'
I4
tp5184
a(S'previous'
I4
tp5185
a(S'sparse'
I4
tp5186
a(S'images'
I4
tp5187
a(S'provided'
I4
tp5188
a(S'defined'
I4
tp5189
a(S'middlebury'
I4
tp5190
a(S'auxiliary'
I4
tp5191
a(S'consider'
I3
tp5192
a(S'nrmssf'
I3
tp5193
a(S'alternating'
I3
tp5194
a(S'solved'
I3
tp5195
a(S'small'
I3
tp5196
a(S'projection'
I3
tp5197
a(S'warp'
I3
tp5198
a(S'visual'
I3
tp5199
a(S'equation'
I3
tp5200
a(S'regions'
I3
tp5201
a(S'maps'
I3
tp5202
a(S'minimizes'
I3
tp5203
asS'Vedula99iccv'
p5204
(lp5205
(S'scene'
I92
tp5206
a(S'flow'
I79
tp5207
a(S'surface'
I49
tp5208
a(S'motion'
I39
tp5209
a(S'optical'
I39
tp5210
a(S'image'
I34
tp5211
a(S'point'
I33
tp5212
a(S'camera'
I32
tp5213
a(S'points'
I30
tp5214
a(S'change'
I23
tp5215
a(S'figure'
I22
tp5216
a(S'structure'
I22
tp5217
a(S'depth'
I21
tp5218
a(S'computed'
I19
tp5219
a(S'three-dimensional'
I17
tp5220
a(S'equations'
I16
tp5221
a(S'normal'
I16
tp5222
a(S'knowledge'
I15
tp5223
a(S'time'
I14
tp5224
a(S'equation'
I13
tp5225
a(S'model'
I13
tp5226
a(S'estimate'
I12
tp5227
a(S'projection'
I11
tp5228
a(S'linear'
I10
tp5229
a(S'rate'
I10
tp5230
a(S'stereo'
I10
tp5231
a(S'sequence'
I10
tp5232
a(S'algorithm'
I10
tp5233
a(S'algorithms'
I9
tp5234
a(S'ray'
I9
tp5235
a(S'dui'
I9
tp5236
a(S'instantaneous'
I9
tp5237
a(S'compute'
I9
tp5238
a(S'computing'
I9
tp5239
a(S'field'
I9
tp5240
a(S'non-rigid'
I8
tp5241
a(S'illumination'
I8
tp5242
a(S'magnitude'
I8
tp5243
a(S'cameras'
I8
tp5244
a(S'flowed'
I8
tp5245
a(S'jacobian'
I8
tp5246
a(S'multiple'
I8
tp5247
a(S'flows'
I8
tp5248
a(S'form'
I8
tp5249
a(S'inverse'
I7
tp5250
a(S'tangent'
I7
tp5251
a(S'temporal'
I7
tp5252
a(S'pixel'
I7
tp5253
a(S'matrix'
I7
tp5254
a(S'completely'
I7
tp5255
a(S'riui'
I7
tp5256
a(S'approach'
I7
tp5257
a(S'direction'
I7
tp5258
a(S'center'
I7
tp5259
a(S'constraint'
I7
tp5260
a(S'irradiance'
I6
tp5261
a(S'dynamic'
I6
tp5262
a(S'estimated'
I6
tp5263
a(S'plane'
I6
tp5264
a(S'light'
I6
tp5265
a(S'measure'
I6
tp5266
a(S'major'
I6
tp5267
a(S'directly'
I6
tp5268
a(S'player'
I6
tp5269
a(S'moving'
I6
tp5270
a(S'function'
I6
tp5271
a(S'independently'
I6
tp5272
a(S'original'
I6
tp5273
a(S'consider'
I5
tp5274
a(S'vector'
I5
tp5275
a(S'small'
I5
tp5276
a(S'nonrigid'
I5
tp5277
a(S'map'
I5
tp5278
a(S'ieee'
I5
tp5279
a(S'fixed'
I5
tp5280
a(S'set'
I5
tp5281
a(S'relative'
I5
tp5282
a(S'estimation'
I5
tp5283
a(S'expression'
I5
tp5284
a(S'three'
I5
tp5285
a(S'rii'
I5
tp5286
a(S'albedo'
I5
tp5287
a(S'depends'
I5
tp5288
a(S'rendering'
I5
tp5289
a(S'complete'
I5
tp5290
a(S'assume'
I5
tp5291
a(S'correspondences'
I4
tp5292
a(S'computation'
I4
tp5293
a(S'presented'
I4
tp5294
a(S'large'
I4
tp5295
a(S'monocular'
I4
tp5296
a(S'reconstruction'
I4
tp5297
a(S'visible'
I4
tp5298
a(S'recovery'
I4
tp5299
a(S'maps'
I4
tp5300
a(S'displayed'
I4
tp5301
a(S'framework'
I4
tp5302
a(S'gradient'
I4
tp5303
a(S'system'
I4
tp5304
a(S'relationship'
I4
tp5305
asS'Jaimez17icra'
p5306
(lp5307
(S'scene'
I78
tp5308
a(S'flow'
I50
tp5309
a(S'clusters'
I47
tp5310
a(S'moving'
I44
tp5311
a(S'motion'
I40
tp5312
a(S'rgb-d'
I33
tp5313
a(S'odometry'
I32
tp5314
a(S'residuals'
I32
tp5315
a(S'camera'
I30
tp5316
a(S'background'
I24
tp5317
a(S'static'
I22
tp5318
a(S'objects'
I21
tp5319
a(S'segmented'
I21
tp5320
a(S'depth'
I21
tp5321
a(S'segmentation'
I20
tp5322
a(S'geometric'
I20
tp5323
a(S'estimation'
I20
tp5324
a(S'rigid'
I19
tp5325
a(S'pixels'
I19
tp5326
a(S'conference'
I17
tp5327
a(S'cluster'
I17
tp5328
a(S'method'
I16
tp5329
a(S'points'
I15
tp5330
a(S'image'
I15
tp5331
a(S'estimate'
I14
tp5332
a(S'set'
I13
tp5333
a(S'dense'
I13
tp5334
a(S'high'
I12
tp5335
a(S'parts'
I12
tp5336
a(S'robust'
I12
tp5337
a(S'average'
I11
tp5338
a(S'computer'
I11
tp5339
a(S'photometric'
I10
tp5340
a(S'number'
I10
tp5341
a(S'vision'
I10
tp5342
a(S'approach'
I10
tp5343
a(S'estimated'
I9
tp5344
a(S'visual'
I9
tp5345
a(S'valid'
I9
tp5346
a(S'images'
I9
tp5347
a(S'compute'
I9
tp5348
a(S'problem'
I9
tp5349
a(S'presented'
I8
tp5350
a(S'provide'
I8
tp5351
a(S'evaluation'
I8
tp5352
a(S'observed'
I8
tp5353
a(S'computed'
I8
tp5354
a(S'accurate'
I8
tp5355
a(S'methods'
I8
tp5356
a(S'low'
I8
tp5357
a(S'dynamic'
I7
tp5358
a(S'process'
I7
tp5359
a(S'segmentations'
I7
tp5360
a(S'regions'
I7
tp5361
a(S'k-means'
I7
tp5362
a(S'main'
I7
tp5363
a(S'precise'
I7
tp5364
a(S'color'
I7
tp5365
a(S'sequences'
I7
tp5366
a(S'error'
I7
tp5367
a(S'associated'
I7
tp5368
a(S'small'
I6
tp5369
a(S'approaches'
I6
tp5370
a(S'automation'
I6
tp5371
a(S'rms'
I6
tp5372
a(S'multiple'
I6
tp5373
a(S'non-static'
I6
tp5374
a(S'pattern'
I6
tp5375
a(S'robotics'
I6
tp5376
a(S'optimization'
I6
tp5377
a(S'frames'
I6
tp5378
a(S'field'
I6
tp5379
a(S'estimates'
I5
tp5380
a(S'pixel'
I5
tp5381
a(S'real-time'
I5
tp5382
a(S'motions'
I5
tp5383
a(S'table'
I5
tp5384
a(S'percentage'
I5
tp5385
a(S'require'
I5
tp5386
a(S'object'
I5
tp5387
a(S'pair'
I5
tp5388
a(S'threshold'
I5
tp5389
a(S'smooth'
I5
tp5390
a(S'best'
I5
tp5391
a(S'sr-flow'
I5
tp5392
a(S'strategy'
I5
tp5393
a(S'higher'
I5
tp5394
a(S'proposed'
I5
tp5395
a(S'occluded'
I5
tp5396
a(S'separate'
I5
tp5397
a(S'faster'
I5
tp5398
a(S'cpu'
I5
tp5399
a(S'non-rigid'
I4
tp5400
a(S'large'
I4
tp5401
a(S'consistent'
I4
tp5402
a(S'observing'
I4
tp5403
a(S'parameters'
I4
tp5404
a(S'translational'
I4
tp5405
a(S'milliseconds'
I4
tp5406
a(S'rotational'
I4
tp5407
asS'Jaimez15_3dv'
p5408
(lp5409
(S'motion'
I69
tp5410
a(S'scene'
I61
tp5411
a(S'flow'
I53
tp5412
a(S'segmentation'
I45
tp5413
a(S'rigid'
I39
tp5414
a(S'labels'
I29
tp5415
a(S'rgb-d'
I29
tp5416
a(S'label'
I28
tp5417
a(S'regularization'
I25
tp5418
a(S'estimation'
I24
tp5419
a(S'motions'
I23
tp5420
a(S'image'
I22
tp5421
a(S'computer'
I21
tp5422
a(S'approach'
I20
tp5423
a(S'number'
I19
tp5424
a(S'function'
I18
tp5425
a(S'estimate'
I17
tp5426
a(S'method'
I17
tp5427
a(S'vision'
I17
tp5428
a(S'conference'
I17
tp5429
a(S'optimization'
I15
tp5430
a(S'quadratic'
I15
tp5431
a(S'smooth'
I15
tp5432
a(S'problem'
I15
tp5433
a(S'pixels'
I13
tp5434
a(S'transitions'
I12
tp5435
a(S'variational'
I12
tp5436
a(S'residuals'
I12
tp5437
a(S'algorithm'
I12
tp5438
a(S'estimated'
I11
tp5439
a(S'figure'
I11
tp5440
a(S'optical'
I11
tp5441
a(S'geometric'
I11
tp5442
a(S'frame'
I10
tp5443
a(S'independent'
I9
tp5444
a(S'real'
I9
tp5445
a(S'occlusion'
I9
tp5446
a(S'estimates'
I8
tp5447
a(S'second'
I8
tp5448
a(S'joint'
I8
tp5449
a(S'rigid-body'
I8
tp5450
a(S'parts'
I8
tp5451
a(S'photometric'
I8
tp5452
a(S'convex'
I8
tp5453
a(S'images'
I8
tp5454
a(S'dense'
I8
tp5455
a(S'segments'
I7
tp5456
a(S'total'
I7
tp5457
a(S'work'
I7
tp5458
a(S'sharp'
I7
tp5459
a(S'order'
I7
tp5460
a(S'sr-flow'
I7
tp5461
a(S'points'
I7
tp5462
a(S'set'
I7
tp5463
a(S'computed'
I7
tp5464
a(S'observed'
I7
tp5465
a(S'moving'
I7
tp5466
a(S'model'
I7
tp5467
a(S'sintel'
I7
tp5468
a(S'accurate'
I7
tp5469
a(S'occluded'
I7
tp5470
a(S'methods'
I7
tp5471
a(S'associated'
I7
tp5472
a(S'journal'
I7
tp5473
a(S'depth'
I7
tp5474
a(S'international'
I6
tp5475
a(S'process'
I6
tp5476
a(S'occlusions'
I6
tp5477
a(S'provide'
I6
tp5478
a(S'note'
I6
tp5479
a(S'based'
I6
tp5480
a(S'outlier'
I6
tp5481
a(S'piecewise'
I6
tp5482
a(S'assigned'
I6
tp5483
a(S'variation'
I6
tp5484
a(S'regularize'
I5
tp5485
a(S'allows'
I5
tp5486
a(S'visual'
I5
tp5487
a(S'data'
I5
tp5488
a(S'interpolated'
I5
tp5489
a(S'propose'
I5
tp5490
a(S'term'
I5
tp5491
a(S'detect'
I5
tp5492
a(S'odometry'
I5
tp5493
a(S'evaluation'
I5
tp5494
a(S'pairs'
I5
tp5495
a(S'average'
I5
tp5496
a(S'pd-flow'
I5
tp5497
a(S'point'
I5
tp5498
a(S'error'
I5
tp5499
a(S'capture'
I5
tp5500
a(S'evaluate'
I5
tp5501
a(S'solve'
I5
tp5502
a(S'field'
I5
tp5503
a(S'models'
I5
tp5504
a(S'synthetic'
I4
tp5505
a(S'large'
I4
tp5506
a(S'small'
I4
tp5507
a(S'layered-flow'
I4
tp5508
a(S'high'
I4
tp5509
asS'Herbst13icra'
p5510
(lp5511
(S'flow'
I114
tp5512
a(S'scene'
I53
tp5513
a(S'motion'
I48
tp5514
a(S'depth'
I47
tp5515
a(S'optical'
I35
tp5516
a(S'color'
I32
tp5517
a(S'rgb-d'
I24
tp5518
a(S'data'
I23
tp5519
a(S'frame'
I21
tp5520
a(S'estimation'
I19
tp5521
a(S'point'
I19
tp5522
a(S'image'
I19
tp5523
a(S'computer'
I18
tp5524
a(S'objects'
I17
tp5525
a(S'object'
I17
tp5526
a(S'conference'
I17
tp5527
a(S'method'
I16
tp5528
a(S'smoothing'
I16
tp5529
a(S'3-d'
I15
tp5530
a(S'large'
I14
tp5531
a(S'vision'
I14
tp5532
a(S'international'
I13
tp5533
a(S'segmentation'
I13
tp5534
a(S'rigid'
I13
tp5535
a(S'term'
I13
tp5536
a(S'dense'
I13
tp5537
a(S'smoothness'
I12
tp5538
a(S'variational'
I12
tp5539
a(S'algorithm'
I12
tp5540
a(S'small'
I11
tp5541
a(S'ieee'
I11
tp5542
a(S'points'
I11
tp5543
a(S'number'
I10
tp5544
a(S'pixels'
I10
tp5545
a(S'anisotropic'
I10
tp5546
a(S'robust'
I10
tp5547
a(S'work'
I9
tp5548
a(S'regularization'
I9
tp5549
a(S'pair'
I9
tp5550
a(S'moving'
I9
tp5551
a(S'isotropic'
I8
tp5552
a(S'penalty'
I8
tp5553
a(S'local'
I8
tp5554
a(S'laplacian'
I8
tp5555
a(S'regularizer'
I8
tp5556
a(S'images'
I8
tp5557
a(S'quadratic'
I8
tp5558
a(S'formulation'
I8
tp5559
a(S'z-flow'
I7
tp5560
a(S'tracking'
I7
tp5561
a(S'low'
I7
tp5562
a(S'find'
I6
tp5563
a(S'motions'
I6
tp5564
a(S'brightness'
I6
tp5565
a(S'estimate'
I6
tp5566
a(S'pattern'
I6
tp5567
a(S'robotics'
I6
tp5568
a(S'surface'
I6
tp5569
a(S'measured'
I6
tp5570
a(S'second'
I5
tp5571
a(S'equation'
I5
tp5572
a(S'xy-flow'
I5
tp5573
a(S'robot'
I5
tp5574
a(S'algorithms'
I5
tp5575
a(S'pixel'
I5
tp5576
a(S'objective'
I5
tp5577
a(S'sampling'
I5
tp5578
a(S'brox'
I5
tp5579
a(S'consistency'
I5
tp5580
a(S'candidate'
I5
tp5581
a(S'recognition'
I5
tp5582
a(S'constraint'
I5
tp5583
a(S'column'
I5
tp5584
a(S'computing'
I5
tp5585
a(S'maximum'
I4
tp5586
a(S'include'
I4
tp5587
a(S'estimates'
I4
tp5588
a(S'estimated'
I4
tp5589
a(S'commonly'
I4
tp5590
a(S'takes'
I4
tp5591
a(S'machine'
I4
tp5592
a(S'nonlinearized'
I4
tp5593
a(S'magnitude'
I4
tp5594
a(S'gradient'
I4
tp5595
a(S'features'
I4
tp5596
a(S'2-d'
I4
tp5597
a(S'translation'
I4
tp5598
a(S'num'
I4
tp5599
a(S'multiple'
I4
tp5600
a(S'stereo'
I4
tp5601
a(S'techniques'
I4
tp5602
a(S'approach'
I4
tp5603
a(S'terms'
I4
tp5604
a(S'uncertainty'
I4
tp5605
a(S'optimization'
I4
tp5606
a(S'perform'
I4
tp5607
a(S'automation'
I4
tp5608
a(S'human'
I4
tp5609
a(S'previous'
I4
tp5610
a(S'fitting'
I4
tp5611
asS'Richardt16_3dv'
p5612
(lp5613
(S'flow'
I172
tp5614
a(S'scene'
I111
tp5615
a(S'stereo'
I73
tp5616
a(S'camera'
I40
tp5617
a(S'optical'
I39
tp5618
a(S'view'
I36
tp5619
a(S'occlusion'
I35
tp5620
a(S'depth'
I34
tp5621
a(S'figure'
I33
tp5622
a(S'dense'
I33
tp5623
a(S'cameras'
I29
tp5624
a(S'correspondence'
I28
tp5625
a(S'image'
I28
tp5626
a(S'point'
I27
tp5627
a(S'variational'
I26
tp5628
a(S'motion'
I25
tp5629
a(S'handheld'
I24
tp5630
a(S'cloud'
I23
tp5631
a(S'map'
I22
tp5632
a(S'daisy'
I22
tp5633
a(S'matching'
I21
tp5634
a(S'video'
I19
tp5635
a(S'term'
I19
tp5636
a(S'filling'
I19
tp5637
a(S'wide-baseline'
I19
tp5638
a(S'moving'
I19
tp5639
a(S'left'
I19
tp5640
a(S'mask'
I19
tp5641
a(S'reconstruction'
I18
tp5642
a(S'technique'
I17
tp5643
a(S'epipolar'
I17
tp5644
a(S'flows'
I17
tp5645
a(S'correspondences'
I17
tp5646
a(S'dynamic'
I16
tp5647
a(S'pmbp'
I14
tp5648
a(S'approach'
I14
tp5649
a(S'pixels'
I14
tp5650
a(S'estimation'
I14
tp5651
a(S'error'
I14
tp5652
a(S'colour'
I14
tp5653
a(S'computed'
I13
tp5654
a(S'laplacian'
I13
tp5655
a(S'input'
I13
tp5656
a(S'transactions'
I12
tp5657
a(S'geometry'
I12
tp5658
a(S'finding'
I12
tp5659
a(S'videos'
I12
tp5660
a(S'time'
I12
tp5661
a(S'method'
I11
tp5662
a(S'techniques'
I11
tp5663
a(S'methods'
I11
tp5664
a(S'dataset'
I10
tp5665
a(S'multiple'
I10
tp5666
a(S'baselines'
I10
tp5667
a(S'images'
I10
tp5668
a(S'computer'
I10
tp5669
a(S'constant'
I10
tp5670
a(S'data'
I9
tp5671
a(S'approaches'
I9
tp5672
a(S'frame'
I9
tp5673
a(S'wide'
I9
tp5674
a(S'colours'
I9
tp5675
a(S'terms'
I9
tp5676
a(S'baseline'
I9
tp5677
a(S'frames'
I9
tp5678
a(S'compute'
I9
tp5679
a(S'points'
I9
tp5680
a(S'independently'
I9
tp5681
a(S'computation'
I8
tp5682
a(S'descriptors'
I8
tp5683
a(S'descriptor'
I8
tp5684
a(S'independent'
I8
tp5685
a(S'scenes'
I8
tp5686
a(S'ieee'
I8
tp5687
a(S'sequence'
I8
tp5688
a(S'local'
I8
tp5689
a(S'bear'
I8
tp5690
a(S'capture'
I8
tp5691
a(S'journal'
I8
tp5692
a(S'datasets'
I8
tp5693
a(S'international'
I8
tp5694
a(S'novel'
I7
tp5695
a(S'example'
I7
tp5696
a(S'energy'
I7
tp5697
a(S'based'
I7
tp5698
a(S'fixed'
I7
tp5699
a(S'machine'
I7
tp5700
a(S'pattern'
I7
tp5701
a(S'deer'
I7
tp5702
a(S'exposure'
I7
tp5703
a(S'non-rigid'
I6
tp5704
a(S'difference'
I6
tp5705
a(S'cost'
I6
tp5706
a(S'estimated'
I6
tp5707
a(S'100'
I6
tp5708
a(S'boy'
I6
tp5709
a(S'temporal'
I6
tp5710
a(S'views'
I6
tp5711
a(S'initialisation'
I6
tp5712
a(S'static'
I6
tp5713
asS'Spies00icpr'
p5714
(lp5715
(S'depth'
I35
tp5716
a(S'intensity'
I32
tp5717
a(S'flow'
I29
tp5718
a(S'range'
I22
tp5719
a(S'data'
I15
tp5720
a(S'motion'
I11
tp5721
a(S'error'
I10
tp5722
a(S'estimation'
I9
tp5723
a(S'solution'
I8
tp5724
a(S'iandz'
I7
tp5725
a(S'global'
I6
tp5726
a(S'zonly'
I6
tp5727
a(S'figure'
I6
tp5728
a(S'smoothness'
I6
tp5729
a(S'constraints'
I6
tp5730
a(S'linear'
I6
tp5731
a(S'optical'
I6
tp5732
a(S'test'
I6
tp5733
a(S'synthetic'
I5
tp5734
a(S'total'
I5
tp5735
a(S'equation'
I5
tp5736
a(S'based'
I5
tp5737
a(S'local'
I5
tp5738
a(S'real'
I5
tp5739
a(S'algorithm'
I5
tp5740
a(S'computation'
I4
tp5741
a(S'squares'
I4
tp5742
a(S'movement'
I4
tp5743
a(S'aperture'
I4
tp5744
a(S'rigid'
I4
tp5745
a(S'minimum'
I4
tp5746
a(S'lines'
I4
tp5747
a(S'eigenvalue'
I4
tp5748
a(S'correct'
I4
tp5749
a(S'factor'
I4
tp5750
a(S'computed'
I4
tp5751
a(S'tls'
I4
tp5752
a(S'locally'
I4
tp5753
a(S'combined'
I4
tp5754
a(S'500'
I4
tp5755
a(S'corresponding'
I4
tp5756
a(S'case'
I4
tp5757
a(S'surface'
I4
tp5758
a(S'moving'
I4
tp5759
a(S'density'
I4
tp5760
a(S'methods'
I4
tp5761
a(S'constraint'
I4
tp5762
a(S'constant'
I4
tp5763
a(S'presented'
I3
tp5764
a(S'dir'
I3
tp5765
a(S'full'
I3
tp5766
a(S'100'
I3
tp5767
a(S'equations'
I3
tp5768
a(S'allows'
I3
tp5769
a(S'varying'
I3
tp5770
a(S'numbers'
I3
tp5771
a(S'maps'
I3
tp5772
a(S'mag'
I3
tp5773
a(S'better'
I3
tp5774
a(S'brightness'
I3
tp5775
a(S'weight'
I3
tp5776
a(S'energy'
I3
tp5777
a(S're1'
I3
tp5778
a(S'number'
I3
tp5779
a(S'clearly'
I3
tp5780
a(S'normal'
I3
tp5781
a(S'typically'
I3
tp5782
a(S'smallest'
I3
tp5783
a(S'relative'
I3
tp5784
a(S'currently'
I3
tp5785
a(S'iterations'
I3
tp5786
a(S'three'
I3
tp5787
a(S'laser'
I3
tp5788
a(S'well'
I3
tp5789
a(S'model'
I3
tp5790
a(S'so00'
I3
tp5791
a(S'yields'
I3
tp5792
a(S'smoothly'
I3
tp5793
a(S'integration'
I3
tp5794
a(S'image'
I3
tp5795
a(S'additional'
I3
tp5796
a(S'sequence'
I3
tp5797
a(S'compute'
I3
tp5798
a(S'denote'
I3
tp5799
a(S'time'
I3
tp5800
a(S'partial'
I2
tp5801
a(S'helps'
I2
tp5802
a(S'norm'
I2
tp5803
a(S'choice'
I2
tp5804
a(S'large'
I2
tp5805
a(S'horn'
I2
tp5806
a(S'values'
I2
tp5807
a(S'body'
I2
tp5808
a(S'active'
I2
tp5809
a(S'estimate'
I2
tp5810
a(S'5000'
I2
tp5811
a(S'work'
I2
tp5812
a(S'x-y-range'
I2
tp5813
a(S'recovery'
I2
tp5814
a(S'provide'
I2
tp5815
asS'Valgaerts10eccv'
p5816
(lp5817
(S'flow'
I68
tp5818
a(S'stereo'
I61
tp5819
a(S'scene'
I43
tp5820
a(S'epipolar'
I30
tp5821
a(S'optical'
I27
tp5822
a(S'image'
I27
tp5823
a(S'computer'
I24
tp5824
a(S'estimation'
I23
tp5825
a(S'structure'
I23
tp5826
a(S'term'
I22
tp5827
a(S'joint'
I21
tp5828
a(S'method'
I19
tp5829
a(S'data'
I19
tp5830
a(S'wst'
I18
tp5831
a(S'fundamental'
I18
tp5832
a(S'time'
I18
tp5833
a(S'matrix'
I17
tp5834
a(S'motion'
I17
tp5835
a(S'left'
I17
tp5836
a(S'constraints'
I16
tp5837
a(S'constraint'
I16
tp5838
a(S'geometry'
I15
tp5839
a(S'terms'
I15
tp5840
a(S'sequences'
I15
tp5841
a(S'normalisation'
I14
tp5842
a(S'dense'
I13
tp5843
a(S'g2r'
I12
tp5844
a(S'smoothness'
I12
tp5845
a(S'model'
I12
tp5846
a(S'g1r'
I11
tp5847
a(S'energy'
I11
tp5848
a(S'occlusion'
I11
tp5849
a(S'methods'
I11
tp5850
a(S'international'
I10
tp5851
a(S'ieee'
I10
tp5852
a(S'sequence'
I10
tp5853
a(S'estimated'
I9
tp5854
a(S'variational'
I9
tp5855
a(S'vision'
I9
tp5856
a(S'second'
I8
tp5857
a(S'camera'
I8
tp5858
a(S'g1l'
I8
tp5859
a(S'society'
I8
tp5860
a(S'o1r'
I8
tp5861
a(S'rectified'
I8
tp5862
a(S'distance'
I8
tp5863
a(S'corresponding'
I8
tp5864
a(S'heidelberg'
I8
tp5865
a(S'general'
I8
tp5866
a(S'regularisation'
I8
tp5867
a(S'computation'
I7
tp5868
a(S'g2l'
I7
tp5869
a(S'dwst'
I7
tp5870
a(S'dvst'
I7
tp5871
a(S'o2r'
I7
tp5872
a(S'valgaerts'
I7
tp5873
a(S'introduce'
I7
tp5874
a(S'truth'
I7
tp5875
a(S'unknown'
I7
tp5876
a(S'ground'
I7
tp5877
a(S'based'
I7
tp5878
a(S'g2ry'
I7
tp5879
a(S'respect'
I7
tp5880
a(S'conference'
I7
tp5881
a(S'increments'
I7
tp5882
a(S'case'
I7
tp5883
a(S'correspondences'
I7
tp5884
a(S'images'
I7
tp5885
a(S'functional'
I7
tp5886
a(S'form'
I7
tp5887
a(S'separate'
I7
tp5888
a(S'large'
I6
tp5889
a(S'reconstruction'
I6
tp5890
a(S'tensors'
I6
tp5891
a(S'o2l'
I6
tp5892
a(S'sphere'
I6
tp5893
a(S'dwd'
I6
tp5894
a(S'propose'
I6
tp5895
a(S'displacement'
I6
tp5896
a(S'pairs'
I6
tp5897
a(S'performance'
I6
tp5898
a(S'techniques'
I6
tp5899
a(S'constancy'
I6
tp5900
a(S'points'
I6
tp5901
a(S'pattern'
I6
tp5902
a(S'reference'
I6
tp5903
a(S'consecutive'
I6
tp5904
a(S'point'
I6
tp5905
a(S'wedel'
I6
tp5906
a(S'uncalibrated'
I6
tp5907
a(S'flows'
I6
tp5908
a(S'colour'
I6
tp5909
a(S'real'
I6
tp5910
a(S'vst'
I6
tp5911
a(S'frames'
I6
tp5912
a(S'defined'
I6
tp5913
a(S'spatial'
I6
tp5914
a(S'scores'
I6
tp5915
a(S'dvd'
I6
tp5916
a(S'matrices'
I5
tp5917
asS'Sun15cvpr'
p5918
(lp5919
(S'depth'
I82
tp5920
a(S'motion'
I75
tp5921
a(S'flow'
I51
tp5922
a(S'scene'
I40
tp5923
a(S'method'
I31
tp5924
a(S'layer'
I29
tp5925
a(S'optical'
I28
tp5926
a(S'layered'
I27
tp5927
a(S'conference'
I27
tp5928
a(S'rgbd'
I26
tp5929
a(S'ieee'
I26
tp5930
a(S'computer'
I26
tp5931
a(S'image'
I25
tp5932
a(S'estimation'
I21
tp5933
a(S'figure'
I20
tp5934
a(S'segmentation'
I18
tp5935
a(S'vision'
I18
tp5936
a(S'rgb'
I18
tp5937
a(S'support'
I17
tp5938
a(S'moving'
I16
tp5939
a(S'occlusions'
I15
tp5940
a(S'frame'
I15
tp5941
a(S'occlusion'
I15
tp5942
a(S'pattern'
I14
tp5943
a(S'srsf'
I14
tp5944
a(S'middlebury'
I14
tp5945
a(S'layers'
I12
tp5946
a(S'vtk'
I12
tp5947
a(S'ordering'
I12
tp5948
a(S'data'
I11
tp5949
a(S'sequences'
I11
tp5950
a(S'large'
I10
tp5951
a(S'estimate'
I10
tp5952
a(S'pixels'
I10
tp5953
a(S'model'
I10
tp5954
a(S'second'
I9
tp5955
a(S'pixel'
I9
tp5956
a(S'term'
I9
tp5957
a(S'local'
I9
tp5958
a(S'methods'
I9
tp5959
a(S'function'
I9
tp5960
a(S'single'
I9
tp5961
a(S'global'
I8
tp5962
a(S'rtk'
I8
tp5963
a(S'errors'
I8
tp5964
a(S'energy'
I8
tp5965
a(S'translation'
I8
tp5966
a(S'stk'
I8
tp5967
a(S'approach'
I8
tp5968
a(S'utk'
I8
tp5969
a(S'estimated'
I7
tp5970
a(S'error'
I7
tp5971
a(S'rotation'
I7
tp5972
a(S'foreground'
I7
tp5973
a(S'average'
I7
tp5974
a(S'boundaries'
I7
tp5975
a(S'field'
I7
tp5976
a(S'international'
I7
tp5977
a(S'objects'
I6
tp5978
a(S'benchmark'
I6
tp5979
a(S'rigid'
I6
tp5980
a(S'work'
I6
tp5981
a(S'obtains'
I6
tp5982
a(S'observation'
I6
tp5983
a(S'wtk'
I6
tp5984
a(S'european'
I6
tp5985
a(S'functions'
I6
tp5986
a(S'robust'
I6
tp5987
a(S'solve'
I6
tp5988
a(S'table'
I6
tp5989
a(S'bottleneck'
I5
tp5990
a(S'prior'
I5
tp5991
a(S'camera'
I5
tp5992
a(S'warped'
I5
tp5993
a(S'note'
I5
tp5994
a(S'object'
I5
tp5995
a(S'penalty'
I5
tp5996
a(S'gtk'
I5
tp5997
a(S'corresponding'
I5
tp5998
a(S'promising'
I5
tp5999
a(S'background'
I5
tp6000
a(S'noisy'
I5
tp6001
a(S'dataset'
I5
tp6002
a(S'code'
I4
tp6003
a(S'decide'
I4
tp6004
a(S'cues'
I4
tp6005
a(S'current'
I4
tp6006
a(S'jointly'
I4
tp6007
a(S'allows'
I4
tp6008
a(S'regions'
I4
tp6009
a(S'propose'
I4
tp6010
a(S'reasonable'
I4
tp6011
a(S'aae'
I4
tp6012
a(S'scheme'
I4
tp6013
a(S'sequence'
I4
tp6014
a(S'constancy'
I4
tp6015
a(S'random'
I4
tp6016
a(S'based'
I4
tp6017
a(S'produces'
I4
tp6018
a(S'rms'
I4
tp6019
asS'Huguet07iccv'
p6020
(lp6021
(S'flow'
I115
tp6022
a(S'scene'
I69
tp6023
a(S'optical'
I69
tp6024
a(S'stereo'
I46
tp6025
a(S'disparity'
I38
tp6026
a(S'image'
I38
tp6027
a(S'time'
I38
tp6028
a(S'method'
I23
tp6029
a(S'estimation'
I21
tp6030
a(S'motion'
I19
tp6031
a(S'variational'
I19
tp6032
a(S'3-d'
I19
tp6033
a(S'left'
I18
tp6034
a(S'images'
I17
tp6035
a(S'data'
I15
tp6036
a(S'level'
I15
tp6037
a(S'point'
I13
tp6038
a(S'terms'
I12
tp6039
a(S'problem'
I12
tp6040
a(S'algorithm'
I12
tp6041
a(S'reconstruction'
I11
tp6042
a(S'energy'
I11
tp6043
a(S'work'
I10
tp6044
a(S'term'
I10
tp6045
a(S'computed'
I10
tp6046
a(S'compute'
I10
tp6047
a(S'equations'
I9
tp6048
a(S'occlusions'
I9
tp6049
a(S'regularization'
I9
tp6050
a(S'maps'
I9
tp6051
a(S'ieee'
I9
tp6052
a(S'fixed'
I9
tp6053
a(S'solve'
I9
tp6054
a(S'discontinuities'
I9
tp6055
a(S'solution'
I8
tp6056
a(S'discontinuity'
I8
tp6057
a(S'pixels'
I8
tp6058
a(S'numerical'
I8
tp6059
a(S'real'
I8
tp6060
a(S'functions'
I8
tp6061
a(S'global'
I7
tp6062
a(S'illumination'
I7
tp6063
a(S'figure'
I7
tp6064
a(S'order'
I7
tp6065
a(S'evaluation'
I7
tp6066
a(S'error'
I7
tp6067
a(S'pyramid'
I7
tp6068
a(S'occluded'
I7
tp6069
a(S'edata'
I7
tp6070
a(S'dense'
I7
tp6071
a(S'large'
I6
tp6072
a(S'displacement'
I6
tp6073
a(S'full'
I6
tp6074
a(S'approach'
I6
tp6075
a(S'iterations'
I6
tp6076
a(S'multi-resolution'
I6
tp6077
a(S'resolution'
I6
tp6078
a(S'synthetic'
I5
tp6079
a(S'small'
I5
tp6080
a(S'brox'
I5
tp6081
a(S'sample'
I5
tp6082
a(S'sphere'
I5
tp6083
a(S'cameras'
I5
tp6084
a(S'size'
I5
tp6085
a(S'system'
I5
tp6086
a(S'pair'
I5
tp6087
a(S'ground'
I5
tp6088
a(S'set'
I5
tp6089
a(S'reference'
I5
tp6090
a(S'methods'
I5
tp6091
a(S'sequence'
I5
tp6092
a(S'datasets'
I5
tp6093
a(S'formulation'
I5
tp6094
a(S'field'
I5
tp6095
a(S'computation'
I4
tp6096
a(S'difference'
I4
tp6097
a(S'vector'
I4
tp6098
a(S'component'
I4
tp6099
a(S'highly'
I4
tp6100
a(S'handles'
I4
tp6101
a(S'camera'
I4
tp6102
a(S'associated'
I4
tp6103
a(S'preserving'
I4
tp6104
a(S'parameter'
I4
tp6105
a(S'typical'
I4
tp6106
a(S'propose'
I4
tp6107
a(S'gradient'
I4
tp6108
a(S'differential'
I4
tp6109
a(S'observed'
I4
tp6110
a(S'surfaces'
I4
tp6111
a(S'vertical'
I4
tp6112
a(S'corresponds'
I4
tp6113
a(S'sequences'
I4
tp6114
a(S'three'
I4
tp6115
a(S'corresponding'
I4
tp6116
a(S'applied'
I4
tp6117
a(S'robust'
I4
tp6118
a(S'previous'
I4
tp6119
a(S'euler'
I4
tp6120
a(S'occlusion'
I4
tp6121
asS'Menze15cvpr'
p6122
(lp6123
(S'flow'
I102
tp6124
a(S'scene'
I81
tp6125
a(S'motion'
I34
tp6126
a(S'vision'
I32
tp6127
a(S'objects'
I28
tp6128
a(S'stereo'
I28
tp6129
a(S'optical'
I26
tp6130
a(S'model'
I26
tp6131
a(S'computer'
I26
tp6132
a(S'object'
I24
tp6133
a(S'disparity'
I24
tp6134
a(S'moving'
I23
tp6135
a(S'kitti'
I21
tp6136
a(S'ieee'
I21
tp6137
a(S'ground'
I20
tp6138
a(S'rigid'
I19
tp6139
a(S'well'
I19
tp6140
a(S'number'
I17
tp6141
a(S'scenes'
I17
tp6142
a(S'estimation'
I17
tp6143
a(S'dataset'
I17
tp6144
a(S'image'
I16
tp6145
a(S'method'
I15
tp6146
a(S'pattern'
I15
tp6147
a(S'dense'
I15
tp6148
a(S'proposed'
I14
tp6149
a(S'evaluation'
I13
tp6150
a(S'superpixel'
I13
tp6151
a(S'dynamic'
I12
tp6152
a(S'cad'
I12
tp6153
a(S'term'
I12
tp6154
a(S'data'
I12
tp6155
a(S'parameters'
I12
tp6156
a(S'respect'
I12
tp6157
a(S'unary'
I12
tp6158
a(S'sparse'
I12
tp6159
a(S'matching'
I12
tp6160
a(S'international'
I12
tp6161
a(S'errors'
I11
tp6162
a(S'sgm'
I11
tp6163
a(S'benchmark'
I11
tp6164
a(S'truth'
I11
tp6165
a(S'reference'
I11
tp6166
a(S'plane'
I10
tp6167
a(S'machine'
I10
tp6168
a(S'pixel'
I10
tp6169
a(S'set'
I10
tp6170
a(S'terms'
I10
tp6171
a(S'pixels'
I10
tp6172
a(S'european'
I9
tp6173
a(S'superpixels'
I9
tp6174
a(S'error'
I9
tp6175
a(S'analysis'
I9
tp6176
a(S'quantitative'
I9
tp6177
a(S'point'
I9
tp6178
a(S'recognition'
I9
tp6179
a(S'small'
I8
tp6180
a(S'provide'
I8
tp6181
a(S'combination'
I8
tp6182
a(S'performance'
I8
tp6183
a(S'novel'
I8
tp6184
a(S'supplementary'
I8
tp6185
a(S'table'
I8
tp6186
a(S'body'
I7
tp6187
a(S'figure'
I7
tp6188
a(S'maps'
I7
tp6189
a(S'static'
I7
tp6190
a(S'denotes'
I7
tp6191
a(S'variational'
I7
tp6192
a(S'pair'
I7
tp6193
a(S'laser'
I7
tp6194
a(S'optimization'
I7
tp6195
a(S'background'
I7
tp6196
a(S'methods'
I7
tp6197
a(S'leverage'
I7
tp6198
a(S'journal'
I7
tp6199
a(S'models'
I7
tp6200
a(S'depth'
I7
tp6201
a(S'camera'
I6
tp6202
a(S'challenging'
I6
tp6203
a(S'map'
I6
tp6204
a(S'realistic'
I6
tp6205
a(S'particles'
I6
tp6206
a(S'annotated'
I6
tp6207
a(S'intelligence'
I6
tp6208
a(S'200'
I6
tp6209
a(S'occ'
I6
tp6210
a(S'points'
I6
tp6211
a(S'rigidly'
I6
tp6212
a(S'corresponding'
I6
tp6213
a(S'accurate'
I6
tp6214
a(S'shape'
I6
tp6215
a(S'rgb-d'
I6
tp6216
a(S'qualitative'
I6
tp6217
a(S'images'
I6
tp6218
a(S'autonomous'
I6
tp6219
a(S'associated'
I6
tp6220
a(S'vehicles'
I6
tp6221
a(S'existing'
I5
tp6222
a(S'synthetic'
I5
tp6223
asS'Popham10bmvc'
p6224
(lp6225
(S'motion'
I65
tp6226
a(S'frame'
I40
tp6227
a(S'patch'
I35
tp6228
a(S'patches'
I26
tp6229
a(S'scene'
I24
tp6230
a(S'scene-flow'
I23
tp6231
a(S'estimation'
I21
tp6232
a(S'frames'
I20
tp6233
a(S'surface'
I20
tp6234
a(S'computer'
I15
tp6235
a(S'proposed'
I15
tp6236
a(S'method'
I14
tp6237
a(S'estimating'
I12
tp6238
a(S'surfaces'
I12
tp6239
a(S'approach'
I12
tp6240
a(S'multi-frame'
I12
tp6241
a(S'sequence'
I12
tp6242
a(S'estimate'
I11
tp6243
a(S'set'
I11
tp6244
a(S'model'
I11
tp6245
a(S'tracked'
I11
tp6246
a(S'figure'
I10
tp6247
a(S'ieee'
I10
tp6248
a(S'estimated'
I9
tp6249
a(S'texture'
I9
tp6250
a(S'conference'
I9
tp6251
a(S'image'
I9
tp6252
a(S'neighbouring'
I9
tp6253
a(S'estimates'
I8
tp6254
a(S'prior'
I8
tp6255
a(S'mesh'
I8
tp6256
a(S'measurement'
I8
tp6257
a(S'fitted'
I8
tp6258
a(S'time'
I8
tp6259
a(S'reconstruction'
I7
tp6260
a(S'international'
I7
tp6261
a(S'order'
I7
tp6262
a(S'energy'
I7
tp6263
a(S'multi-view'
I7
tp6264
a(S'vision'
I7
tp6265
a(S'point'
I7
tp6266
a(S'covariance'
I7
tp6267
a(S'tracking'
I7
tp6268
a(S'function'
I7
tp6269
a(S'smooth'
I7
tp6270
a(S'problem'
I7
tp6271
a(S'visual'
I6
tp6272
a(S'cameras'
I6
tp6273
a(S'pattern'
I6
tp6274
a(S'ground'
I6
tp6275
a(S'capture'
I6
tp6276
a(S'camera'
I5
tp6277
a(S'equation'
I5
tp6278
a(S'smoothness'
I5
tp6279
a(S'truth'
I5
tp6280
a(S'hull'
I5
tp6281
a(S'feature-based'
I5
tp6282
a(S'multiple'
I5
tp6283
a(S'stereo'
I5
tp6284
a(S'flow'
I5
tp6285
a(S'constrain'
I5
tp6286
a(S'local'
I5
tp6287
a(S'correspondences'
I5
tp6288
a(S'techniques'
I5
tp6289
a(S'figures'
I5
tp6290
a(S'three'
I5
tp6291
a(S'planar'
I5
tp6292
a(S'input'
I5
tp6293
a(S'methods'
I5
tp6294
a(S'images'
I5
tp6295
a(S'dense'
I5
tp6296
a(S'demonstrated'
I5
tp6297
a(S'single'
I5
tp6298
a(S'j2n'
I4
tp6299
a(S'work'
I4
tp6300
a(S'regularization'
I4
tp6301
a(S'paper'
I4
tp6302
a(S'motions'
I4
tp6303
a(S'term'
I4
tp6304
a(S'projected'
I4
tp6305
a(S'predicted'
I4
tp6306
a(S'features'
I4
tp6307
a(S'final'
I4
tp6308
a(S'points'
I4
tp6309
a(S'sequences'
I4
tp6310
a(S'general'
I4
tp6311
a(S'transactions'
I4
tp6312
a(S'error'
I4
tp6313
a(S'esmooth'
I4
tp6314
a(S'captured'
I4
tp6315
a(S'edata'
I4
tp6316
a(S'regularized'
I4
tp6317
a(S'field'
I4
tp6318
a(S'covariances'
I4
tp6319
a(S'non-rigid'
I3
tp6320
a(S'advantage'
I3
tp6321
a(S'translations'
I3
tp6322
a(S'difference'
I3
tp6323
a(S'positions'
I3
tp6324
a(S'multi-camera'
I3
tp6325
asS'Zhang12accv'
p6326
(lp6327
(S'flow'
p6328
I97
tp6329
a(S'scene'
p6330
I82
tp6331
a(S'depth'
p6332
I48
tp6333
a(S'motion'
p6334
I38
tp6335
a(S'optical'
p6336
I27
tp6337
a(S'pixels'
p6338
I26
tp6339
a(S'bilateral'
p6340
I24
tp6341
a(S'energy'
p6342
I23
tp6343
a(S'appearance'
p6344
I23
tp6345
a(S'image'
p6346
I22
tp6347
a(S'filter'
p6348
I18
tp6349
a(S'method'
p6350
I17
tp6351
a(S'multi-channel'
p6352
I15
tp6353
a(S'based'
p6354
I15
tp6355
a(S'dense'
p6356
I15
tp6357
a(S'estimated'
p6358
I14
tp6359
a(S'areas'
p6360
I14
tp6361
a(S'methods'
p6362
I14
tp6363
a(S'function'
p6364
I14
tp6365
a(S'regularization'
p6366
I13
tp6367
a(S'accuracy'
p6368
I13
tp6369
a(S'large'
p6370
I12
tp6371
a(S'result'
p6372
I12
tp6373
a(S'boundaries'
p6374
I11
tp6375
a(S'corresponding'
p6376
I11
tp6377
a(S'accurate'
p6378
I11
tp6379
a(S'estimate'
p6380
I10
tp6381
a(S'stereo'
p6382
I10
tp6383
a(S'weak'
p6384
I10
tp6385
a(S'estimation'
p6386
I10
tp6387
a(S'anisotropic'
p6388
I10
tp6389
a(S'images'
p6390
I10
tp6391
a(S'ieee'
p6392
I9
tp6393
a(S'relationship'
p6394
I9
tp6395
a(S'ground'
p6396
I9
tp6397
a(S'over-smoothing'
p6398
I8
tp6399
a(S'change'
p6400
I8
tp6401
a(S'marked'
p6402
I8
tp6403
a(S'global'
p6404
I7
tp6405
a(S'camera'
p6406
I7
tp6407
a(S'brightness'
p6408
I7
tp6409
a(S'constraints'
p6410
I7
tp6411
a(S'proposed'
p6412
I7
tp6413
a(S'occluded'
p6414
I7
tp6415
a(S'smooth'
p6416
I7
tp6417
a(S'defined'
p6418
I7
tp6419
a(S'middlebury'
p6420
I7
tp6421
a(S'experiment'
p6422
I6
tp6423
a(S'figure'
p6424
I6
tp6425
a(S'data'
p6426
I6
tp6427
a(S'truth'
p6428
I6
tp6429
a(S'variational'
p6430
I6
tp6431
a(S'optimization'
p6432
I6
tp6433
a(S'disparity'
p6434
I6
tp6435
a(S'heidelberg'
p6436
I6
tp6437
a(S'row'
p6438
I5
tp6439
a(S'zhang'
p6440
I5
tp6441
a(S'small'
p6442
I5
tp6443
a(S'axis'
p6444
I5
tp6445
a(S'smoothness'
p6446
I5
tp6447
a(S'weight'
p6448
I5
tp6449
a(S'cameras'
p6450
I5
tp6451
a(S'aae'
p6452
I5
tp6453
a(S'vision'
p6454
I5
tp6455
a(S'approach'
p6456
I5
tp6457
a(S'col'
p6458
I5
tp6459
a(S'color'
p6460
I5
tp6461
a(S'consistency'
p6462
I5
tp6463
a(S'evaluation'
p6464
I5
tp6465
a(S'introduced'
p6466
I5
tp6467
a(S'influence'
p6468
I5
tp6469
a(S'field'
p6470
I5
tp6471
a(S'structure'
p6472
I5
tp6473
a(S'errors'
p6474
I4
tp6475
a(S'appear'
p6476
I4
tp6477
a(S'box'
p6478
I4
tp6479
a(S'larger'
p6480
I4
tp6481
a(S'criteria'
p6482
I4
tp6483
a(S'plane'
p6484
I4
tp6485
a(S'light'
p6486
I4
tp6487
a(S'pixel'
p6488
I4
tp6489
a(S'propose'
p6490
I4
tp6491
a(S'red'
p6492
I4
tp6493
a(S'assumption'
p6494
I4
tp6495
a(S'smoothed'
p6496
I4
tp6497
a(S'constancy'
p6498
I4
tp6499
a(S'computer'
p6500
I4
tp6501
a(S'window'
p6502
I4
tp6503
a(S'outliers'
p6504
I4
tp6505
a(S'suppress'
p6506
I4
tp6507
a(S'robust'
p6508
I4
tp6509
a(S'captured'
p6510
I4
tp6511
a(S'evaluate'
p6512
I4
tp6513
a(S'deal'
p6514
I4
tp6515
a(S'noise'
p6516
I4
tp6517
a(S'compared'
p6518
I4
tp6519
a(S'deviation'
p6520
I4
tp6521
a(S'lack'
p6522
I3
tp6523
a(S'eccv'
p6524
I3
tp6525
a(S'div'
p6526
I3
tp6527
asS'Vogel11iccv'
p6528
(lp6529
(S'flow'
I98
tp6530
a(S'motion'
I95
tp6531
a(S'scene'
I68
tp6532
a(S'rigid'
I37
tp6533
a(S'rigidity'
I35
tp6534
a(S'optical'
I29
tp6535
a(S'image'
I27
tp6536
a(S'prior'
I26
tp6537
a(S'estimation'
I26
tp6538
a(S'error'
I20
tp6539
a(S'depth'
I20
tp6540
a(S'local'
I19
tp6541
a(S'stereo'
I18
tp6542
a(S'total'
I16
tp6543
a(S'data'
I16
tp6544
a(S'term'
I16
tp6545
a(S'errors'
I15
tp6546
a(S'scenes'
I15
tp6547
a(S'images'
I14
tp6548
a(S'camera'
I13
tp6549
a(S'reference'
I12
tp6550
a(S'terms'
I12
tp6551
a(S'well'
I12
tp6552
a(S'variation'
I12
tp6553
a(S'time'
I12
tp6554
a(S'small'
I11
tp6555
a(S'standard'
I11
tp6556
a(S'point'
I11
tp6557
a(S'moving'
I11
tp6558
a(S'field'
I11
tp6559
a(S'dense'
I10
tp6560
a(S'method'
I9
tp6561
a(S'work'
I9
tp6562
a(S'brightness'
I9
tp6563
a(S'approach'
I9
tp6564
a(S'non-rigid'
I8
tp6565
a(S'vectors'
I8
tp6566
a(S'cameras'
I8
tp6567
a(S'estimate'
I8
tp6568
a(S'three'
I8
tp6569
a(S'surface'
I8
tp6570
a(S'proposed'
I8
tp6571
a(S'disparity'
I8
tp6572
a(S'discontinuities'
I8
tp6573
a(S'deviations'
I8
tp6574
a(S'assume'
I8
tp6575
a(S'estimated'
I7
tp6576
a(S'residual'
I7
tp6577
a(S'weighting'
I7
tp6578
a(S'regularization'
I7
tp6579
a(S'txyz'
I7
tp6580
a(S'smoothness'
I7
tp6581
a(S'energy'
I7
tp6582
a(S'constancy'
I7
tp6583
a(S'rig'
I7
tp6584
a(S'function'
I7
tp6585
a(S'spatial'
I7
tp6586
a(S'leads'
I6
tp6587
a(S'difference'
I6
tp6588
a(S'synthetic'
I6
tp6589
a(S'projection'
I6
tp6590
a(S'figure'
I6
tp6591
a(S'pixel'
I6
tp6592
a(S'projected'
I6
tp6593
a(S'note'
I6
tp6594
a(S'points'
I6
tp6595
a(S'set'
I6
tp6596
a(S'regularizer'
I6
tp6597
a(S'table'
I6
tp6598
a(S'differences'
I6
tp6599
a(S'problem'
I6
tp6600
a(S'priors'
I6
tp6601
a(S'similarity'
I5
tp6602
a(S'large'
I5
tp6603
a(S'directly'
I5
tp6604
a(S'observed'
I5
tp6605
a(S'areas'
I5
tp6606
a(S'define'
I5
tp6607
a(S'capture'
I5
tp6608
a(S'viewing'
I5
tp6609
a(S'vdsc'
I5
tp6610
a(S'real'
I5
tp6611
a(S'penalize'
I5
tp6612
a(S'minimization'
I5
tp6613
a(S'gradients'
I5
tp6614
a(S'independently'
I5
tp6615
a(S'global'
I4
tp6616
a(S'aaew'
I4
tp6617
a(S'current'
I4
tp6618
a(S'penalizes'
I4
tp6619
a(S'nrmsw'
I4
tp6620
a(S'scenarios'
I4
tp6621
a(S'normalized'
I4
tp6622
a(S'regions'
I4
tp6623
a(S'experiments'
I4
tp6624
a(S'views'
I4
tp6625
a(S'reduce'
I4
tp6626
a(S'measure'
I4
tp6627
a(S'matrix'
I4
tp6628
a(S'variational'
I4
tp6629
asS'SSF'
p6630
(lp6631
(S'flow'
I203
tp6632
a(S'motion'
I74
tp6633
a(S'scene'
I70
tp6634
a(S'disparity'
I63
tp6635
a(S'optical'
I53
tp6636
a(S'error'
I48
tp6637
a(S'segmentation'
I43
tp6638
a(S'input'
I39
tp6639
a(S'updated'
I36
tp6640
a(S'semantic'
I34
tp6641
a(S'stereo'
I34
tp6642
a(S'initial'
I33
tp6643
a(S'estimates'
I28
tp6644
a(S'estimation'
I23
tp6645
a(S'crf'
I21
tp6646
a(S'pixel'
I18
tp6647
a(S'geometry'
I18
tp6648
a(S'cascaded'
I18
tp6649
a(S'kitti'
I17
tp6650
a(S'rigid'
I16
tp6651
a(S'pixels'
I16
tp6652
a(S'model'
I15
tp6653
a(S'methods'
I15
tp6654
a(S'depth'
I15
tp6655
a(S'cues'
I14
tp6656
a(S'data'
I14
tp6657
a(S'foreground'
I14
tp6658
a(S'object'
I14
tp6659
a(S'objects'
I13
tp6660
a(S'frame'
I12
tp6661
a(S'image'
I12
tp6662
a(S'stage'
I11
tp6663
a(S'challenging'
I11
tp6664
a(S'algorithms'
I11
tp6665
a(S'efficient'
I11
tp6666
a(S'improve'
I11
tp6667
a(S'inference'
I11
tp6668
a(S'refined'
I11
tp6669
a(S'prsf'
I10
tp6670
a(S'cascade'
I10
tp6671
a(S'temporal'
I10
tp6672
a(S'prediction'
I9
tp6673
a(S'second'
I9
tp6674
a(S'estimated'
I9
tp6675
a(S'space'
I9
tp6676
a(S'estimate'
I9
tp6677
a(S'figure'
I9
tp6678
a(S'autonomous'
I9
tp6679
a(S'models'
I9
tp6680
a(S'algorithm'
I9
tp6681
a(S'eseg'
I8
tp6682
a(S'energy'
I8
tp6683
a(S'egeom'
I8
tp6684
a(S'moving'
I8
tp6685
a(S'frames'
I8
tp6686
a(S'time'
I8
tp6687
a(S'dist'
I7
tp6688
a(S'table'
I7
tp6689
a(S'framework'
I7
tp6690
a(S'distance'
I7
tp6691
a(S'accurate'
I7
tp6692
a(S'dense'
I7
tp6693
a(S'csad'
I7
tp6694
a(S'field'
I7
tp6695
a(S'osf'
I6
tp6696
a(S'large'
I6
tp6697
a(S'method'
I6
tp6698
a(S'benchmark'
I6
tp6699
a(S'feature'
I6
tp6700
a(S'map'
I6
tp6701
a(S'driving'
I6
tp6702
a(S'performance'
I6
tp6703
a(S'accuracy'
I6
tp6704
a(S'state-of-the-art'
I6
tp6705
a(S'inferred'
I6
tp6706
a(S'two-frame'
I6
tp6707
a(S'better'
I6
tp6708
a(S'perform'
I6
tp6709
a(S'dataset'
I6
tp6710
a(S'function'
I6
tp6711
a(S'cost'
I5
tp6712
a(S'errors'
I5
tp6713
a(S'apply'
I5
tp6714
a(S'camera'
I5
tp6715
a(S'training'
I5
tp6716
a(S'segmentations'
I5
tp6717
a(S'refine'
I5
tp6718
a(S'evaluation'
I5
tp6719
a(S'belief'
I5
tp6720
a(S'multiple'
I5
tp6721
a(S'parameters'
I5
tp6722
a(S'fields'
I5
tp6723
a(S'approach'
I5
tp6724
a(S'improved'
I5
tp6725
a(S'point'
I5
tp6726
a(S'fused'
I5
tp6727
a(S'define'
I5
tp6728
a(S'evaluate'
I5
tp6729
a(S'background'
I5
tp6730
a(S'noisy'
I5
tp6731
asS'Gottfried11isvc'
p6732
(lp6733
(S'flow'
I68
tp6734
a(S'depth'
I63
tp6735
a(S'range'
I40
tp6736
a(S'image'
I32
tp6737
a(S'data'
I30
tp6738
a(S'color'
I30
tp6739
a(S'kinect'
I30
tp6740
a(S'optical'
I19
tp6741
a(S'estimation'
I19
tp6742
a(S'algorithm'
I16
tp6743
a(S'values'
I15
tp6744
a(S'multi-modal'
I15
tp6745
a(S'alignment'
I13
tp6746
a(S'calibration'
I13
tp6747
a(S'invalid'
I12
tp6748
a(S'raw'
I11
tp6749
a(S'computing'
I11
tp6750
a(S'motion'
I10
tp6751
a(S'proposed'
I10
tp6752
a(S'method'
I9
tp6753
a(S'regularization'
I9
tp6754
a(S'standard'
I9
tp6755
a(S'computation'
I8
tp6756
a(S'regions'
I8
tp6757
a(S'exclusion'
I8
tp6758
a(S'computer'
I8
tp6759
a(S'vision'
I7
tp6760
a(S'pixels'
I7
tp6761
a(S'hardware'
I7
tp6762
a(S'camera'
I7
tp6763
a(S'approach'
I6
tp6764
a(S'projected'
I6
tp6765
a(S'imaging'
I6
tp6766
a(S'channel'
I6
tp6767
a(S'device'
I6
tp6768
a(S'novel'
I6
tp6769
a(S'hand'
I6
tp6770
a(S'valid'
I6
tp6771
a(S'heidelberg'
I6
tp6772
a(S'provided'
I6
tp6773
a(S'compute'
I6
tp6774
a(S'mask'
I6
tp6775
a(S'algorithms'
I5
tp6776
a(S'main'
I5
tp6777
a(S'term'
I5
tp6778
a(S'based'
I5
tp6779
a(S'areas'
I5
tp6780
a(S'fields'
I5
tp6781
a(S'result'
I5
tp6782
a(S'pattern'
I5
tp6783
a(S'point'
I5
tp6784
a(S'sequences'
I5
tp6785
a(S'edges'
I5
tp6786
a(S'robust'
I5
tp6787
a(S'disparity'
I5
tp6788
a(S'methods'
I5
tp6789
a(S'object'
I5
tp6790
a(S'inverse'
I4
tp6791
a(S'excluded'
I4
tp6792
a(S'second'
I4
tp6793
a(S'strong'
I4
tp6794
a(S'warp'
I4
tp6795
a(S'aligned'
I4
tp6796
a(S'figure'
I4
tp6797
a(S'mapping'
I4
tp6798
a(S'paper'
I4
tp6799
a(S'pixel'
I4
tp6800
a(S'framework'
I4
tp6801
a(S'set'
I4
tp6802
a(S'computed'
I4
tp6803
a(S'captured'
I4
tp6804
a(S'weak'
I4
tp6805
a(S'warping'
I4
tp6806
a(S'images'
I4
tp6807
a(S'garbe'
I4
tp6808
a(S'problem'
I4
tp6809
a(S'field'
I4
tp6810
a(S'focus'
I3
tp6811
a(S'applied'
I3
tp6812
a(S'presented'
I3
tp6813
a(S'positions'
I3
tp6814
a(S'large'
I3
tp6815
a(S'approaches'
I3
tp6816
a(S'alamitos'
I3
tp6817
a(S'los'
I3
tp6818
a(S'process'
I3
tp6819
a(S'gesture'
I3
tp6820
a(S'scene'
I3
tp6821
a(S'cameras'
I3
tp6822
a(S'channels'
I3
tp6823
a(S'warped'
I3
tp6824
a(S'introduction'
I3
tp6825
a(S'vga'
I3
tp6826
a(S'stereo'
I3
tp6827
a(S'accurate'
I3
tp6828
a(S'terms'
I3
tp6829
a(S'region'
I3
tp6830
a(S'simply'
I3
tp6831
a(S'borders'
I3
tp6832
a(S'case'
I3
tp6833
asS'Ferstl14_3dv'
p6834
(lp6835
(S'depth'
I67
tp6836
a(S'flow'
I46
tp6837
a(S'image'
I41
tp6838
a(S'scene'
I37
tp6839
a(S'method'
I36
tp6840
a(S'estimation'
I33
tp6841
a(S'camera'
I30
tp6842
a(S'intensity'
I26
tp6843
a(S'motion'
I25
tp6844
a(S'model'
I21
tp6845
a(S'methods'
I21
tp6846
a(S'order'
I20
tp6847
a(S'regularization'
I17
tp6848
a(S'input'
I16
tp6849
a(S'movement'
I15
tp6850
a(S'point'
I15
tp6851
a(S'dense'
I15
tp6852
a(S'pose'
I15
tp6853
a(S'evaluation'
I14
tp6854
a(S'error'
I14
tp6855
a(S'optimization'
I13
tp6856
a(S'field'
I13
tp6857
a(S'object'
I12
tp6858
a(S'stereo'
I12
tp6859
a(S'terms'
I12
tp6860
a(S'space'
I11
tp6861
a(S'anisotropic'
I11
tp6862
a(S'atgv-sf'
I11
tp6863
a(S'non-rigid'
I10
tp6864
a(S'superresolution'
I10
tp6865
a(S'problem'
I10
tp6866
a(S'second'
I9
tp6867
a(S'projection'
I9
tp6868
a(S'data'
I9
tp6869
a(S'energy'
I9
tp6870
a(S'estimate'
I9
tp6871
a(S'based'
I9
tp6872
a(S'tgv'
I9
tp6873
a(S'higher'
I9
tp6874
a(S'convex'
I9
tp6875
a(S'compared'
I9
tp6876
a(S'directly'
I8
tp6877
a(S'calculated'
I8
tp6878
a(S'frame'
I8
tp6879
a(S'result'
I8
tp6880
a(S'movements'
I8
tp6881
a(S'real'
I8
tp6882
a(S'warping'
I8
tp6883
a(S'calculate'
I7
tp6884
a(S'pmd'
I7
tp6885
a(S'work'
I7
tp6886
a(S'diffusion'
I7
tp6887
a(S'tensor'
I7
tp6888
a(S'consecutive'
I7
tp6889
a(S'direction'
I7
tp6890
a(S'solve'
I7
tp6891
a(S'sota'
I7
tp6892
a(S'minimization'
I7
tp6893
a(S'constraint'
I7
tp6894
a(S'constant'
I7
tp6895
a(S'difference'
I6
tp6896
a(S'noise'
I6
tp6897
a(S'estimated'
I6
tp6898
a(S'nano'
I6
tp6899
a(S'epeof'
I6
tp6900
a(S'objects'
I6
tp6901
a(S'figure'
I6
tp6902
a(S'applications'
I6
tp6903
a(S'framework'
I6
tp6904
a(S'constraints'
I6
tp6905
a(S'aaeof'
I6
tp6906
a(S'variational'
I6
tp6907
a(S'parameters'
I6
tp6908
a(S'smooth'
I6
tp6909
a(S'boundaries'
I6
tp6910
a(S'moving'
I6
tp6911
a(S'proposed'
I6
tp6912
a(S'accurate'
I6
tp6913
a(S'images'
I6
tp6914
a(S'icp'
I6
tp6915
a(S'defined'
I6
tp6916
a(S'resolution'
I6
tp6917
a(S'global'
I5
tp6918
a(S'existing'
I5
tp6919
a(S'synthetic'
I5
tp6920
a(S'total'
I5
tp6921
a(S'sensors'
I5
tp6922
a(S'pure'
I5
tp6923
a(S'map'
I5
tp6924
a(S'sphereflow'
I5
tp6925
a(S'brightness'
I5
tp6926
a(S'approaches'
I5
tp6927
a(S'acquisition'
I5
tp6928
a(S'multi-view'
I5
tp6929
a(S'accuracy'
I5
tp6930
a(S'quantitative'
I5
tp6931
a(S'points'
I5
tp6932
a(S'kfusion'
I5
tp6933
a(S'experiment'
I5
tp6934
a(S'vision'
I5
tp6935
asS'Min06icpr'
p6936
(lp6937
(S'disparity'
I46
tp6938
a(S'motion'
I39
tp6939
a(S'estimation'
I31
tp6940
a(S'joint'
I25
tp6941
a(S'energy'
I21
tp6942
a(S'model'
I19
tp6943
a(S'image'
I16
tp6944
a(S'term'
I15
tp6945
a(S'initial'
I15
tp6946
a(S'simultaneous'
I13
tp6947
a(S'left'
I12
tp6948
a(S'frame'
I11
tp6949
a(S'vector'
I9
tp6950
a(S'current'
I9
tp6951
a(S'vectors'
I9
tp6952
a(S'regularization'
I9
tp6953
a(S'motions'
I8
tp6954
a(S'previous'
I8
tp6955
a(S'estimate'
I8
tp6956
a(S'sequences'
I8
tp6957
a(S'data'
I8
tp6958
a(S'proposed'
I7
tp6959
a(S'functional'
I7
tp6960
a(S'fields'
I7
tp6961
a(S'correct'
I7
tp6962
a(S'smoothing'
I7
tp6963
a(S'stereo'
I7
tp6964
a(S'propose'
I6
tp6965
a(S'edge-preserving'
I6
tp6966
a(S'displacement'
I5
tp6967
a(S'estimated'
I5
tp6968
a(S'energy-based'
I5
tp6969
a(S'ieee'
I5
tp6970
a(S'correspondence'
I4
tp6971
a(S'2006'
I4
tp6972
a(S'solution'
I4
tp6973
a(S'div'
I4
tp6974
a(S'constraints'
I4
tp6975
a(S'discontinuities'
I4
tp6976
a(S'recognition'
I4
tp6977
a(S'pattern'
I4
tp6978
a(S'il2'
I4
tp6979
a(S'international'
I4
tp6980
a(S'method'
I4
tp6981
a(S'ir2'
I4
tp6982
a(S'number'
I4
tp6983
a(S'conference'
I4
tp6984
a(S'optical'
I4
tp6985
a(S'compute'
I4
tp6986
a(S'equation'
I4
tp6987
a(S'figure'
I4
tp6988
a(S'performed'
I4
tp6989
a(S'field'
I4
tp6990
a(S'18th'
I4
tp6991
a(S'flow'
I4
tp6992
a(S'order'
I4
tp6993
a(S'accurate'
I3
tp6994
a(S'convergence'
I3
tp6995
a(S'consists'
I3
tp6996
a(S'increase'
I3
tp6997
a(S'local'
I3
tp6998
a(S'euler-lagrange'
I3
tp6999
a(S'reduce'
I3
tp7000
a(S'regularized'
I3
tp7001
a(S'boundaries'
I3
tp7002
a(S'dxdy'
I3
tp7003
a(S'refers'
I3
tp7004
a(S'improve'
I3
tp7005
a(S'constraint'
I3
tp7006
a(S'map'
I3
tp7007
a(S'point'
I3
tp7008
a(S'operator'
I3
tp7009
a(S'stereoscopic'
I3
tp7010
a(S'anisotropic'
I3
tp7011
a(S'corresponding'
I3
tp7012
a(S'acquire'
I3
tp7013
a(S'diffusion'
I3
tp7014
a(S'smooth'
I3
tp7015
a(S'weighting'
I3
tp7016
a(S'performance'
I3
tp7017
a(S'yields'
I3
tp7018
a(S'algorithm'
I3
tp7019
a(S'points'
I3
tp7020
a(S'edp'
I2
tp7021
a(S'large'
I2
tp7022
a(S'monocular'
I2
tp7023
a(S'technique'
I2
tp7024
a(S'2il2'
I2
tp7025
a(S'maximum'
I2
tp7026
a(S'applying'
I2
tp7027
a(S'difference'
I2
tp7028
a(S'esm'
I2
tp7029
a(S'scene'
I2
tp7030
a(S'man'
I2
tp7031
a(S'voxel'
I2
tp7032
a(S'methods'
I2
tp7033
a(S'table'
I2
tp7034
a(S'images'
I2
tp7035
a(S'dense'
I2
tp7036
a(S'motion-disparity'
I2
tp7037
as.